
/home/dude/raspberry-pi-pico/pico_projects/Motor/build/Motor.elf:     file format elf32-littlearm

Sections:
Idx Name          Size      VMA       LMA       File off  Algn
  0 .boot2        00000100  10000000  10000000  00001000  2**0
                  CONTENTS, ALLOC, LOAD, READONLY, CODE
  1 .text         00003ce8  10000100  10000100  00001100  2**3
                  CONTENTS, ALLOC, LOAD, READONLY, CODE
  2 .rodata       00000a74  10003de8  10003de8  00004de8  2**3
                  CONTENTS, ALLOC, LOAD, READONLY, DATA
  3 .binary_info  00000024  1000485c  1000485c  0000585c  2**2
                  CONTENTS, ALLOC, LOAD, READONLY, DATA
  4 .ram_vector_table 000000c0  20000000  20000000  00007000  2**2
                  ALLOC
  5 .uninitialized_data 00000000  200000c0  200000c0  000062e0  2**0
                  CONTENTS
  6 .data         00000220  200000c0  10004880  000060c0  2**4
                  CONTENTS, ALLOC, LOAD, READONLY, CODE
  7 .tdata        00000000  200002e0  200002e0  000062e0  2**0
                  CONTENTS, ALLOC, LOAD, DATA, THREAD_LOCAL
  8 .tbss         00000000  200002e0  200002e0  00000000  2**0
                  ALLOC, THREAD_LOCAL
  9 .bss          000003fc  200002e0  10004aa0  000062e0  2**3
                  ALLOC
 10 .heap         0003f924  200006dc  10004aa0  000066dc  2**2
                  ALLOC, READONLY
 11 .scratch_x    00000000  20040000  20040000  000062e0  2**0
                  CONTENTS
 12 .scratch_y    00000000  20041000  20041000  000062e0  2**0
                  CONTENTS
 13 .stack_dummy  00000800  20041000  20041000  000062e0  2**5
                  CONTENTS, READONLY
 14 .ARM.attributes 00000028  00000000  00000000  00006ae0  2**0
                  CONTENTS, READONLY
 15 .comment      00000033  00000000  00000000  00006b08  2**0
                  CONTENTS, READONLY
 16 .debug_info   00016a56  00000000  00000000  00006b3b  2**0
                  CONTENTS, READONLY, DEBUGGING, OCTETS
 17 .debug_abbrev 00004a6c  00000000  00000000  0001d591  2**0
                  CONTENTS, READONLY, DEBUGGING, OCTETS
 18 .debug_loc    0000dc34  00000000  00000000  00021ffd  2**0
                  CONTENTS, READONLY, DEBUGGING, OCTETS
 19 .debug_aranges 00000fb8  00000000  00000000  0002fc38  2**3
                  CONTENTS, READONLY, DEBUGGING, OCTETS
 20 .debug_ranges 00003340  00000000  00000000  00030bf0  2**3
                  CONTENTS, READONLY, DEBUGGING, OCTETS
 21 .debug_line   0000f9d6  00000000  00000000  00033f30  2**0
                  CONTENTS, READONLY, DEBUGGING, OCTETS
 22 .debug_str    00004ce4  00000000  00000000  00043906  2**0
                  CONTENTS, READONLY, DEBUGGING, OCTETS
 23 .debug_frame  00001be0  00000000  00000000  000485ec  2**2
                  CONTENTS, READONLY, DEBUGGING, OCTETS

/home/dude/raspberry-pi-pico/pico_projects/Motor/build/Motor.elf:     file format elf32-littlearm


Disassembly of section .boot2:

10000000 <__boot2_start__>:
10000000:	4b32b500 	.word	0x4b32b500
10000004:	60582021 	.word	0x60582021
10000008:	21026898 	.word	0x21026898
1000000c:	60984388 	.word	0x60984388
10000010:	611860d8 	.word	0x611860d8
10000014:	4b2e6158 	.word	0x4b2e6158
10000018:	60992100 	.word	0x60992100
1000001c:	61592102 	.word	0x61592102
10000020:	22f02101 	.word	0x22f02101
10000024:	492b5099 	.word	0x492b5099
10000028:	21016019 	.word	0x21016019
1000002c:	20356099 	.word	0x20356099
10000030:	f844f000 	.word	0xf844f000
10000034:	42902202 	.word	0x42902202
10000038:	2106d014 	.word	0x2106d014
1000003c:	f0006619 	.word	0xf0006619
10000040:	6e19f834 	.word	0x6e19f834
10000044:	66192101 	.word	0x66192101
10000048:	66182000 	.word	0x66182000
1000004c:	f000661a 	.word	0xf000661a
10000050:	6e19f82c 	.word	0x6e19f82c
10000054:	6e196e19 	.word	0x6e196e19
10000058:	f0002005 	.word	0xf0002005
1000005c:	2101f82f 	.word	0x2101f82f
10000060:	d1f94208 	.word	0xd1f94208
10000064:	60992100 	.word	0x60992100
10000068:	6019491b 	.word	0x6019491b
1000006c:	60592100 	.word	0x60592100
10000070:	481b491a 	.word	0x481b491a
10000074:	21016001 	.word	0x21016001
10000078:	21eb6099 	.word	0x21eb6099
1000007c:	21a06619 	.word	0x21a06619
10000080:	f0006619 	.word	0xf0006619
10000084:	2100f812 	.word	0x2100f812
10000088:	49166099 	.word	0x49166099
1000008c:	60014814 	.word	0x60014814
10000090:	60992101 	.word	0x60992101
10000094:	2800bc01 	.word	0x2800bc01
10000098:	4700d000 	.word	0x4700d000
1000009c:	49134812 	.word	0x49134812
100000a0:	c8036008 	.word	0xc8036008
100000a4:	8808f380 	.word	0x8808f380
100000a8:	b5034708 	.word	0xb5034708
100000ac:	20046a99 	.word	0x20046a99
100000b0:	d0fb4201 	.word	0xd0fb4201
100000b4:	42012001 	.word	0x42012001
100000b8:	bd03d1f8 	.word	0xbd03d1f8
100000bc:	6618b502 	.word	0x6618b502
100000c0:	f7ff6618 	.word	0xf7ff6618
100000c4:	6e18fff2 	.word	0x6e18fff2
100000c8:	bd026e18 	.word	0xbd026e18
100000cc:	40020000 	.word	0x40020000
100000d0:	18000000 	.word	0x18000000
100000d4:	00070000 	.word	0x00070000
100000d8:	005f0300 	.word	0x005f0300
100000dc:	00002221 	.word	0x00002221
100000e0:	180000f4 	.word	0x180000f4
100000e4:	a0002022 	.word	0xa0002022
100000e8:	10000100 	.word	0x10000100
100000ec:	e000ed08 	.word	0xe000ed08
	...
100000fc:	7a4eb274 	.word	0x7a4eb274

Disassembly of section .text:

10000100 <__VECTOR_TABLE>:
10000100:	20042000 	.word	0x20042000
10000104:	100001f7 	.word	0x100001f7
10000108:	100001c3 	.word	0x100001c3
1000010c:	100001c5 	.word	0x100001c5
10000110:	100001c1 	.word	0x100001c1
10000114:	100001c1 	.word	0x100001c1
10000118:	100001c1 	.word	0x100001c1
1000011c:	100001c1 	.word	0x100001c1
10000120:	100001c1 	.word	0x100001c1
10000124:	100001c1 	.word	0x100001c1
10000128:	100001c1 	.word	0x100001c1
1000012c:	100001c7 	.word	0x100001c7
10000130:	100001c1 	.word	0x100001c1
10000134:	100001c1 	.word	0x100001c1
10000138:	100001c9 	.word	0x100001c9
1000013c:	100001cb 	.word	0x100001cb
10000140:	100001cd 	.word	0x100001cd
10000144:	100001cd 	.word	0x100001cd
10000148:	100001cd 	.word	0x100001cd
1000014c:	100001cd 	.word	0x100001cd
10000150:	100001cd 	.word	0x100001cd
10000154:	100001cd 	.word	0x100001cd
10000158:	100001cd 	.word	0x100001cd
1000015c:	100001cd 	.word	0x100001cd
10000160:	100001cd 	.word	0x100001cd
10000164:	100001cd 	.word	0x100001cd
10000168:	100001cd 	.word	0x100001cd
1000016c:	100001cd 	.word	0x100001cd
10000170:	100001cd 	.word	0x100001cd
10000174:	100001cd 	.word	0x100001cd
10000178:	100001cd 	.word	0x100001cd
1000017c:	100001cd 	.word	0x100001cd
10000180:	100001cd 	.word	0x100001cd
10000184:	100001cd 	.word	0x100001cd
10000188:	100001cd 	.word	0x100001cd
1000018c:	100001cd 	.word	0x100001cd
10000190:	100001cd 	.word	0x100001cd
10000194:	100001cd 	.word	0x100001cd
10000198:	100001cd 	.word	0x100001cd
1000019c:	100001cd 	.word	0x100001cd
100001a0:	100001cd 	.word	0x100001cd
100001a4:	100001cd 	.word	0x100001cd
100001a8:	100001cd 	.word	0x100001cd
100001ac:	100001cd 	.word	0x100001cd
100001b0:	100001cd 	.word	0x100001cd
100001b4:	100001cd 	.word	0x100001cd
100001b8:	100001cd 	.word	0x100001cd
100001bc:	100001cd 	.word	0x100001cd

100001c0 <isr_invalid>:
100001c0:	be00      	bkpt	0x0000

100001c2 <isr_nmi>:
100001c2:	be00      	bkpt	0x0000

100001c4 <isr_hardfault>:
100001c4:	be00      	bkpt	0x0000

100001c6 <isr_svcall>:
100001c6:	be00      	bkpt	0x0000

100001c8 <isr_pendsv>:
100001c8:	be00      	bkpt	0x0000

100001ca <isr_systick>:
100001ca:	be00      	bkpt	0x0000

100001cc <__unhandled_user_irq>:
100001cc:	f3ef 8005 	mrs	r0, IPSR
100001d0:	3810      	subs	r0, #16

100001d2 <unhandled_user_irq_num_in_r0>:
100001d2:	be00      	bkpt	0x0000

100001d4 <binary_info_header>:
100001d4:	7188ebf2 	.word	0x7188ebf2
100001d8:	1000485c 	.word	0x1000485c
100001dc:	10004880 	.word	0x10004880
100001e0:	10000238 	.word	0x10000238
100001e4:	e71aa390 	.word	0xe71aa390

100001e8 <_entry_point>:
100001e8:	481e      	ldr	r0, [pc, #120]	; (10000264 <data_cpy_table+0x2c>)

100001ea <_enter_vtable_in_r0>:
100001ea:	491f      	ldr	r1, [pc, #124]	; (10000268 <data_cpy_table+0x30>)
100001ec:	6008      	str	r0, [r1, #0]
100001ee:	c806      	ldmia	r0!, {r1, r2}
100001f0:	f381 8808 	msr	MSP, r1
100001f4:	4710      	bx	r2

100001f6 <_reset_handler>:
100001f6:	481d      	ldr	r0, [pc, #116]	; (1000026c <data_cpy_table+0x34>)
100001f8:	6800      	ldr	r0, [r0, #0]
100001fa:	2800      	cmp	r0, #0
100001fc:	d001      	beq.n	10000202 <hold_non_core0_in_bootrom+0x4>

100001fe <hold_non_core0_in_bootrom>:
100001fe:	4819      	ldr	r0, [pc, #100]	; (10000264 <data_cpy_table+0x2c>)
10000200:	e7f3      	b.n	100001ea <_enter_vtable_in_r0>
10000202:	a40d      	add	r4, pc, #52	; (adr r4, 10000238 <data_cpy_table>)
10000204:	cc0e      	ldmia	r4!, {r1, r2, r3}
10000206:	2900      	cmp	r1, #0
10000208:	d002      	beq.n	10000210 <hold_non_core0_in_bootrom+0x12>
1000020a:	f000 f812 	bl	10000232 <data_cpy>
1000020e:	e7f9      	b.n	10000204 <hold_non_core0_in_bootrom+0x6>
10000210:	4917      	ldr	r1, [pc, #92]	; (10000270 <data_cpy_table+0x38>)
10000212:	4a18      	ldr	r2, [pc, #96]	; (10000274 <data_cpy_table+0x3c>)
10000214:	2000      	movs	r0, #0
10000216:	e000      	b.n	1000021a <bss_fill_test>

10000218 <bss_fill_loop>:
10000218:	c101      	stmia	r1!, {r0}

1000021a <bss_fill_test>:
1000021a:	4291      	cmp	r1, r2
1000021c:	d1fc      	bne.n	10000218 <bss_fill_loop>

1000021e <platform_entry>:
1000021e:	4916      	ldr	r1, [pc, #88]	; (10000278 <data_cpy_table+0x40>)
10000220:	4788      	blx	r1
10000222:	4916      	ldr	r1, [pc, #88]	; (1000027c <data_cpy_table+0x44>)
10000224:	4788      	blx	r1
10000226:	4916      	ldr	r1, [pc, #88]	; (10000280 <data_cpy_table+0x48>)
10000228:	4788      	blx	r1
1000022a:	be00      	bkpt	0x0000
1000022c:	e7fd      	b.n	1000022a <platform_entry+0xc>

1000022e <data_cpy_loop>:
1000022e:	c901      	ldmia	r1!, {r0}
10000230:	c201      	stmia	r2!, {r0}

10000232 <data_cpy>:
10000232:	429a      	cmp	r2, r3
10000234:	d3fb      	bcc.n	1000022e <data_cpy_loop>
10000236:	4770      	bx	lr

10000238 <data_cpy_table>:
10000238:	10004880 	.word	0x10004880
1000023c:	200000c0 	.word	0x200000c0
10000240:	200002e0 	.word	0x200002e0
10000244:	10004aa0 	.word	0x10004aa0
10000248:	20040000 	.word	0x20040000
1000024c:	20040000 	.word	0x20040000
10000250:	10004aa0 	.word	0x10004aa0
10000254:	20041000 	.word	0x20041000
10000258:	20041000 	.word	0x20041000
1000025c:	00000000 	.word	0x00000000
10000260:	4770      	bx	lr
10000262:	0000      	.short	0x0000
10000264:	00000000 	.word	0x00000000
10000268:	e000ed08 	.word	0xe000ed08
1000026c:	d0000000 	.word	0xd0000000
10000270:	200002e0 	.word	0x200002e0
10000274:	200006dc 	.word	0x200006dc
10000278:	1000381d 	.word	0x1000381d
1000027c:	10000349 	.word	0x10000349
10000280:	100037d9 	.word	0x100037d9

10000284 <_init>:
10000284:	b5f8      	push	{r3, r4, r5, r6, r7, lr}
10000286:	46c0      	nop			; (mov r8, r8)

10000288 <deregister_tm_clones>:
10000288:	4804      	ldr	r0, [pc, #16]	; (1000029c <deregister_tm_clones+0x14>)
1000028a:	4b05      	ldr	r3, [pc, #20]	; (100002a0 <deregister_tm_clones+0x18>)
1000028c:	b510      	push	{r4, lr}
1000028e:	4283      	cmp	r3, r0
10000290:	d003      	beq.n	1000029a <deregister_tm_clones+0x12>
10000292:	4b04      	ldr	r3, [pc, #16]	; (100002a4 <deregister_tm_clones+0x1c>)
10000294:	2b00      	cmp	r3, #0
10000296:	d000      	beq.n	1000029a <deregister_tm_clones+0x12>
10000298:	4798      	blx	r3
1000029a:	bd10      	pop	{r4, pc}
1000029c:	200002e0 	.word	0x200002e0
100002a0:	200002e0 	.word	0x200002e0
100002a4:	00000000 	.word	0x00000000

100002a8 <register_tm_clones>:
100002a8:	4806      	ldr	r0, [pc, #24]	; (100002c4 <register_tm_clones+0x1c>)
100002aa:	4907      	ldr	r1, [pc, #28]	; (100002c8 <register_tm_clones+0x20>)
100002ac:	1a09      	subs	r1, r1, r0
100002ae:	108b      	asrs	r3, r1, #2
100002b0:	0fc9      	lsrs	r1, r1, #31
100002b2:	18c9      	adds	r1, r1, r3
100002b4:	b510      	push	{r4, lr}
100002b6:	1049      	asrs	r1, r1, #1
100002b8:	d003      	beq.n	100002c2 <register_tm_clones+0x1a>
100002ba:	4b04      	ldr	r3, [pc, #16]	; (100002cc <register_tm_clones+0x24>)
100002bc:	2b00      	cmp	r3, #0
100002be:	d000      	beq.n	100002c2 <register_tm_clones+0x1a>
100002c0:	4798      	blx	r3
100002c2:	bd10      	pop	{r4, pc}
100002c4:	200002e0 	.word	0x200002e0
100002c8:	200002e0 	.word	0x200002e0
100002cc:	00000000 	.word	0x00000000

100002d0 <__do_global_dtors_aux>:
100002d0:	b510      	push	{r4, lr}
100002d2:	4c07      	ldr	r4, [pc, #28]	; (100002f0 <__do_global_dtors_aux+0x20>)
100002d4:	7823      	ldrb	r3, [r4, #0]
100002d6:	2b00      	cmp	r3, #0
100002d8:	d109      	bne.n	100002ee <__do_global_dtors_aux+0x1e>
100002da:	f7ff ffd5 	bl	10000288 <deregister_tm_clones>
100002de:	4b05      	ldr	r3, [pc, #20]	; (100002f4 <__do_global_dtors_aux+0x24>)
100002e0:	2b00      	cmp	r3, #0
100002e2:	d002      	beq.n	100002ea <__do_global_dtors_aux+0x1a>
100002e4:	4804      	ldr	r0, [pc, #16]	; (100002f8 <__do_global_dtors_aux+0x28>)
100002e6:	e000      	b.n	100002ea <__do_global_dtors_aux+0x1a>
100002e8:	bf00      	nop
100002ea:	2301      	movs	r3, #1
100002ec:	7023      	strb	r3, [r4, #0]
100002ee:	bd10      	pop	{r4, pc}
100002f0:	20000460 	.word	0x20000460
100002f4:	00000000 	.word	0x00000000
100002f8:	10003de8 	.word	0x10003de8

100002fc <frame_dummy>:
100002fc:	4b05      	ldr	r3, [pc, #20]	; (10000314 <frame_dummy+0x18>)
100002fe:	b510      	push	{r4, lr}
10000300:	2b00      	cmp	r3, #0
10000302:	d003      	beq.n	1000030c <frame_dummy+0x10>
10000304:	4904      	ldr	r1, [pc, #16]	; (10000318 <frame_dummy+0x1c>)
10000306:	4805      	ldr	r0, [pc, #20]	; (1000031c <frame_dummy+0x20>)
10000308:	e000      	b.n	1000030c <frame_dummy+0x10>
1000030a:	bf00      	nop
1000030c:	f7ff ffcc 	bl	100002a8 <register_tm_clones>
10000310:	bd10      	pop	{r4, pc}
10000312:	46c0      	nop			; (mov r8, r8)
10000314:	00000000 	.word	0x00000000
10000318:	20000464 	.word	0x20000464
1000031c:	10003de8 	.word	0x10003de8

10000320 <check_button>:
10000320:	23d0      	movs	r3, #208	; 0xd0
10000322:	061b      	lsls	r3, r3, #24
10000324:	685a      	ldr	r2, [r3, #4]
10000326:	2301      	movs	r3, #1
10000328:	4083      	lsls	r3, r0
1000032a:	4213      	tst	r3, r2
1000032c:	d008      	beq.n	10000340 <check_button+0x20>
1000032e:	23d0      	movs	r3, #208	; 0xd0
10000330:	061b      	lsls	r3, r3, #24
10000332:	685a      	ldr	r2, [r3, #4]
10000334:	2301      	movs	r3, #1
10000336:	408b      	lsls	r3, r1
10000338:	4213      	tst	r3, r2
1000033a:	d103      	bne.n	10000344 <check_button+0x24>
1000033c:	2000      	movs	r0, #0
1000033e:	4770      	bx	lr
10000340:	20b4      	movs	r0, #180	; 0xb4
10000342:	e7fc      	b.n	1000033e <check_button+0x1e>
10000344:	205a      	movs	r0, #90	; 0x5a
10000346:	e7fa      	b.n	1000033e <check_button+0x1e>

10000348 <main>:
10000348:	b5f0      	push	{r4, r5, r6, r7, lr}
1000034a:	b087      	sub	sp, #28
1000034c:	f003 fb84 	bl	10003a58 <stdio_init_all>
10000350:	2104      	movs	r1, #4
10000352:	2000      	movs	r0, #0
10000354:	f000 f87e 	bl	10000454 <gpio_set_function>
10000358:	4b34      	ldr	r3, [pc, #208]	; (1000042c <main+0xe4>)
1000035a:	681b      	ldr	r3, [r3, #0]
1000035c:	041b      	lsls	r3, r3, #16
1000035e:	0c1b      	lsrs	r3, r3, #16
10000360:	4a33      	ldr	r2, [pc, #204]	; (10000430 <main+0xe8>)
10000362:	6013      	str	r3, [r2, #0]
10000364:	2002      	movs	r0, #2
10000366:	f000 f8ab 	bl	100004c0 <gpio_init>
1000036a:	2010      	movs	r0, #16
1000036c:	f000 f8a8 	bl	100004c0 <gpio_init>
10000370:	23d0      	movs	r3, #208	; 0xd0
10000372:	061b      	lsls	r3, r3, #24
10000374:	2204      	movs	r2, #4
10000376:	629a      	str	r2, [r3, #40]	; 0x28
10000378:	2280      	movs	r2, #128	; 0x80
1000037a:	0252      	lsls	r2, r2, #9
1000037c:	629a      	str	r2, [r3, #40]	; 0x28
1000037e:	2200      	movs	r2, #0
10000380:	2101      	movs	r1, #1
10000382:	2002      	movs	r0, #2
10000384:	f000 f880 	bl	10000488 <gpio_set_pulls>
10000388:	2200      	movs	r2, #0
1000038a:	2101      	movs	r1, #1
1000038c:	2010      	movs	r0, #16
1000038e:	f000 f87b 	bl	10000488 <gpio_set_pulls>
10000392:	2005      	movs	r0, #5
10000394:	f001 f816 	bl	100013c4 <clock_get_hz>
10000398:	0004      	movs	r4, r0
1000039a:	4926      	ldr	r1, [pc, #152]	; (10000434 <main+0xec>)
1000039c:	f001 fa00 	bl	100017a0 <__wrap___aeabi_uidiv>
100003a0:	4b25      	ldr	r3, [pc, #148]	; (10000438 <main+0xf0>)
100003a2:	429c      	cmp	r4, r3
100003a4:	d903      	bls.n	100003ae <main+0x66>
100003a6:	28ff      	cmp	r0, #255	; 0xff
100003a8:	d902      	bls.n	100003b0 <main+0x68>
100003aa:	20ff      	movs	r0, #255	; 0xff
100003ac:	e000      	b.n	100003b0 <main+0x68>
100003ae:	2001      	movs	r0, #1
100003b0:	466b      	mov	r3, sp
100003b2:	2500      	movs	r5, #0
100003b4:	9500      	str	r5, [sp, #0]
100003b6:	605d      	str	r5, [r3, #4]
100003b8:	609d      	str	r5, [r3, #8]
100003ba:	2210      	movs	r2, #16
100003bc:	605a      	str	r2, [r3, #4]
100003be:	4a1f      	ldr	r2, [pc, #124]	; (1000043c <main+0xf4>)
100003c0:	609a      	str	r2, [r3, #8]
100003c2:	ac03      	add	r4, sp, #12
100003c4:	0022      	movs	r2, r4
100003c6:	cbc2      	ldmia	r3!, {r1, r6, r7}
100003c8:	c2c2      	stmia	r2!, {r1, r6, r7}
100003ca:	f002 f84f 	bl	1000246c <__wrap___aeabi_ui2f>
100003ce:	2183      	movs	r1, #131	; 0x83
100003d0:	05c9      	lsls	r1, r1, #23
100003d2:	f002 f842 	bl	1000245a <__wrap___aeabi_fmul>
100003d6:	f002 f8a3 	bl	10002520 <__wrap___aeabi_f2uiz>
100003da:	9004      	str	r0, [sp, #16]
100003dc:	4b18      	ldr	r3, [pc, #96]	; (10000440 <main+0xf8>)
100003de:	9305      	str	r3, [sp, #20]
100003e0:	4b18      	ldr	r3, [pc, #96]	; (10000444 <main+0xfc>)
100003e2:	601d      	str	r5, [r3, #0]
100003e4:	609d      	str	r5, [r3, #8]
100003e6:	60dd      	str	r5, [r3, #12]
100003e8:	9a05      	ldr	r2, [sp, #20]
100003ea:	611a      	str	r2, [r3, #16]
100003ec:	9a04      	ldr	r2, [sp, #16]
100003ee:	605a      	str	r2, [r3, #4]
100003f0:	9a03      	ldr	r2, [sp, #12]
100003f2:	601a      	str	r2, [r3, #0]
100003f4:	681a      	ldr	r2, [r3, #0]
100003f6:	2301      	movs	r3, #1
100003f8:	4393      	bics	r3, r2
100003fa:	4a13      	ldr	r2, [pc, #76]	; (10000448 <main+0x100>)
100003fc:	6013      	str	r3, [r2, #0]
100003fe:	2110      	movs	r1, #16
10000400:	2002      	movs	r0, #2
10000402:	f7ff ff8d 	bl	10000320 <check_button>
10000406:	f002 f837 	bl	10002478 <__wrap___aeabi_i2f>
1000040a:	4910      	ldr	r1, [pc, #64]	; (1000044c <main+0x104>)
1000040c:	f002 f825 	bl	1000245a <__wrap___aeabi_fmul>
10000410:	490f      	ldr	r1, [pc, #60]	; (10000450 <main+0x108>)
10000412:	f002 f807 	bl	10002424 <__wrap___aeabi_fadd>
10000416:	f002 f851 	bl	100024bc <__wrap___aeabi_f2iz>
1000041a:	b280      	uxth	r0, r0
1000041c:	4b03      	ldr	r3, [pc, #12]	; (1000042c <main+0xe4>)
1000041e:	681b      	ldr	r3, [r3, #0]
10000420:	4058      	eors	r0, r3
10000422:	0400      	lsls	r0, r0, #16
10000424:	0c00      	lsrs	r0, r0, #16
10000426:	4b02      	ldr	r3, [pc, #8]	; (10000430 <main+0xe8>)
10000428:	6018      	str	r0, [r3, #0]
1000042a:	e7e8      	b.n	100003fe <main+0xb6>
1000042c:	4005000c 	.word	0x4005000c
10000430:	4005100c 	.word	0x4005100c
10000434:	000f4240 	.word	0x000f4240
10000438:	000f423f 	.word	0x000f423f
1000043c:	0000ffff 	.word	0x0000ffff
10000440:	00004e20 	.word	0x00004e20
10000444:	40050000 	.word	0x40050000
10000448:	40051000 	.word	0x40051000
1000044c:	4131c71c 	.word	0x4131c71c
10000450:	43fa0000 	.word	0x43fa0000

10000454 <gpio_set_function>:
10000454:	b510      	push	{r4, lr}
10000456:	0083      	lsls	r3, r0, #2
10000458:	4a08      	ldr	r2, [pc, #32]	; (1000047c <gpio_set_function+0x28>)
1000045a:	189a      	adds	r2, r3, r2
1000045c:	6812      	ldr	r2, [r2, #0]
1000045e:	2440      	movs	r4, #64	; 0x40
10000460:	4054      	eors	r4, r2
10000462:	22c0      	movs	r2, #192	; 0xc0
10000464:	4022      	ands	r2, r4
10000466:	4c06      	ldr	r4, [pc, #24]	; (10000480 <gpio_set_function+0x2c>)
10000468:	46a4      	mov	ip, r4
1000046a:	4463      	add	r3, ip
1000046c:	601a      	str	r2, [r3, #0]
1000046e:	00c0      	lsls	r0, r0, #3
10000470:	4b04      	ldr	r3, [pc, #16]	; (10000484 <gpio_set_function+0x30>)
10000472:	469c      	mov	ip, r3
10000474:	4460      	add	r0, ip
10000476:	6041      	str	r1, [r0, #4]
10000478:	bd10      	pop	{r4, pc}
1000047a:	46c0      	nop			; (mov r8, r8)
1000047c:	4001c004 	.word	0x4001c004
10000480:	4001d004 	.word	0x4001d004
10000484:	40014000 	.word	0x40014000

10000488 <gpio_set_pulls>:
10000488:	0080      	lsls	r0, r0, #2
1000048a:	4b0c      	ldr	r3, [pc, #48]	; (100004bc <gpio_set_pulls+0x34>)
1000048c:	469c      	mov	ip, r3
1000048e:	4460      	add	r0, ip
10000490:	2900      	cmp	r1, #0
10000492:	d00e      	beq.n	100004b2 <gpio_set_pulls+0x2a>
10000494:	2308      	movs	r3, #8
10000496:	2a00      	cmp	r2, #0
10000498:	d00d      	beq.n	100004b6 <gpio_set_pulls+0x2e>
1000049a:	2204      	movs	r2, #4
1000049c:	4313      	orrs	r3, r2
1000049e:	6802      	ldr	r2, [r0, #0]
100004a0:	4053      	eors	r3, r2
100004a2:	220c      	movs	r2, #12
100004a4:	4013      	ands	r3, r2
100004a6:	2280      	movs	r2, #128	; 0x80
100004a8:	0152      	lsls	r2, r2, #5
100004aa:	4694      	mov	ip, r2
100004ac:	4460      	add	r0, ip
100004ae:	6003      	str	r3, [r0, #0]
100004b0:	4770      	bx	lr
100004b2:	2300      	movs	r3, #0
100004b4:	e7ef      	b.n	10000496 <gpio_set_pulls+0xe>
100004b6:	2200      	movs	r2, #0
100004b8:	e7f0      	b.n	1000049c <gpio_set_pulls+0x14>
100004ba:	46c0      	nop			; (mov r8, r8)
100004bc:	4001c004 	.word	0x4001c004

100004c0 <gpio_init>:
100004c0:	b510      	push	{r4, lr}
100004c2:	2301      	movs	r3, #1
100004c4:	4083      	lsls	r3, r0
100004c6:	22d0      	movs	r2, #208	; 0xd0
100004c8:	0612      	lsls	r2, r2, #24
100004ca:	6293      	str	r3, [r2, #40]	; 0x28
100004cc:	6193      	str	r3, [r2, #24]
100004ce:	2105      	movs	r1, #5
100004d0:	f7ff ffc0 	bl	10000454 <gpio_set_function>
100004d4:	bd10      	pop	{r4, pc}
	...

100004d8 <panic>:
100004d8:	b40f      	push	{r0, r1, r2, r3}
100004da:	b500      	push	{lr}
100004dc:	b083      	sub	sp, #12
100004de:	4808      	ldr	r0, [pc, #32]	; (10000500 <panic+0x28>)
100004e0:	f003 fabf 	bl	10003a62 <__wrap_puts>
100004e4:	9b04      	ldr	r3, [sp, #16]
100004e6:	2b00      	cmp	r3, #0
100004e8:	d007      	beq.n	100004fa <panic+0x22>
100004ea:	a905      	add	r1, sp, #20
100004ec:	9101      	str	r1, [sp, #4]
100004ee:	0018      	movs	r0, r3
100004f0:	f003 fac6 	bl	10003a80 <__wrap_vprintf>
100004f4:	4803      	ldr	r0, [pc, #12]	; (10000504 <panic+0x2c>)
100004f6:	f003 fab4 	bl	10003a62 <__wrap_puts>
100004fa:	2001      	movs	r0, #1
100004fc:	f003 f96a 	bl	100037d4 <_exit>
10000500:	10003de8 	.word	0x10003de8
10000504:	10003df8 	.word	0x10003df8

10000508 <hw_claim_lock>:
10000508:	f3ef 8010 	mrs	r0, PRIMASK
1000050c:	b672      	cpsid	i
1000050e:	4b03      	ldr	r3, [pc, #12]	; (1000051c <hw_claim_lock+0x14>)
10000510:	681b      	ldr	r3, [r3, #0]
10000512:	2b00      	cmp	r3, #0
10000514:	d0fb      	beq.n	1000050e <hw_claim_lock+0x6>
10000516:	f3bf 8f5f 	dmb	sy
1000051a:	4770      	bx	lr
1000051c:	d000012c 	.word	0xd000012c

10000520 <hw_claim_unlock>:
10000520:	f3bf 8f5f 	dmb	sy
10000524:	4b02      	ldr	r3, [pc, #8]	; (10000530 <hw_claim_unlock+0x10>)
10000526:	2200      	movs	r2, #0
10000528:	601a      	str	r2, [r3, #0]
1000052a:	f380 8810 	msr	PRIMASK, r0
1000052e:	4770      	bx	lr
10000530:	d000012c 	.word	0xd000012c

10000534 <hw_claim_or_assert>:
10000534:	b5f8      	push	{r3, r4, r5, r6, r7, lr}
10000536:	0006      	movs	r6, r0
10000538:	000c      	movs	r4, r1
1000053a:	0015      	movs	r5, r2
1000053c:	f7ff ffe4 	bl	10000508 <hw_claim_lock>
10000540:	08e3      	lsrs	r3, r4, #3
10000542:	18f7      	adds	r7, r6, r3
10000544:	5cf1      	ldrb	r1, [r6, r3]
10000546:	2207      	movs	r2, #7
10000548:	4022      	ands	r2, r4
1000054a:	2301      	movs	r3, #1
1000054c:	4093      	lsls	r3, r2
1000054e:	420b      	tst	r3, r1
10000550:	d105      	bne.n	1000055e <hw_claim_or_assert+0x2a>
10000552:	b2db      	uxtb	r3, r3
10000554:	430b      	orrs	r3, r1
10000556:	703b      	strb	r3, [r7, #0]
10000558:	f7ff ffe2 	bl	10000520 <hw_claim_unlock>
1000055c:	bdf8      	pop	{r3, r4, r5, r6, r7, pc}
1000055e:	0021      	movs	r1, r4
10000560:	0028      	movs	r0, r5
10000562:	f7ff ffb9 	bl	100004d8 <panic>
	...

10000568 <next_striped_spin_lock_num>:
10000568:	4a05      	ldr	r2, [pc, #20]	; (10000580 <next_striped_spin_lock_num+0x18>)
1000056a:	7810      	ldrb	r0, [r2, #0]
1000056c:	1c43      	adds	r3, r0, #1
1000056e:	b2db      	uxtb	r3, r3
10000570:	7013      	strb	r3, [r2, #0]
10000572:	2b17      	cmp	r3, #23
10000574:	d902      	bls.n	1000057c <next_striped_spin_lock_num+0x14>
10000576:	0013      	movs	r3, r2
10000578:	2210      	movs	r2, #16
1000057a:	701a      	strb	r2, [r3, #0]
1000057c:	4770      	bx	lr
1000057e:	46c0      	nop			; (mov r8, r8)
10000580:	20000238 	.word	0x20000238

10000584 <spin_locks_reset>:
10000584:	2300      	movs	r3, #0
10000586:	e007      	b.n	10000598 <spin_locks_reset+0x14>
10000588:	4a05      	ldr	r2, [pc, #20]	; (100005a0 <spin_locks_reset+0x1c>)
1000058a:	189a      	adds	r2, r3, r2
1000058c:	0092      	lsls	r2, r2, #2
1000058e:	f3bf 8f5f 	dmb	sy
10000592:	2100      	movs	r1, #0
10000594:	6011      	str	r1, [r2, #0]
10000596:	3301      	adds	r3, #1
10000598:	2b1f      	cmp	r3, #31
1000059a:	d9f5      	bls.n	10000588 <spin_locks_reset+0x4>
1000059c:	4770      	bx	lr
1000059e:	46c0      	nop			; (mov r8, r8)
100005a0:	34000040 	.word	0x34000040

100005a4 <set_raw_irq_handler_and_unlock>:
100005a4:	4b07      	ldr	r3, [pc, #28]	; (100005c4 <set_raw_irq_handler_and_unlock+0x20>)
100005a6:	689b      	ldr	r3, [r3, #8]
100005a8:	3010      	adds	r0, #16
100005aa:	0080      	lsls	r0, r0, #2
100005ac:	5019      	str	r1, [r3, r0]
100005ae:	f3bf 8f5f 	dmb	sy
100005b2:	f3bf 8f5f 	dmb	sy
100005b6:	4b04      	ldr	r3, [pc, #16]	; (100005c8 <set_raw_irq_handler_and_unlock+0x24>)
100005b8:	2100      	movs	r1, #0
100005ba:	6019      	str	r1, [r3, #0]
100005bc:	f382 8810 	msr	PRIMASK, r2
100005c0:	4770      	bx	lr
100005c2:	46c0      	nop			; (mov r8, r8)
100005c4:	e000ed00 	.word	0xe000ed00
100005c8:	d0000124 	.word	0xd0000124

100005cc <nvic_ipr0>:
100005cc:	4800      	ldr	r0, [pc, #0]	; (100005d0 <nvic_ipr0+0x4>)
100005ce:	4770      	bx	lr
100005d0:	e000e400 	.word	0xe000e400

100005d4 <runtime_init_per_core_irq_priorities>:
100005d4:	b510      	push	{r4, lr}
100005d6:	f7ff fff9 	bl	100005cc <nvic_ipr0>
100005da:	2300      	movs	r3, #0
100005dc:	e002      	b.n	100005e4 <runtime_init_per_core_irq_priorities+0x10>
100005de:	4a03      	ldr	r2, [pc, #12]	; (100005ec <runtime_init_per_core_irq_priorities+0x18>)
100005e0:	c004      	stmia	r0!, {r2}
100005e2:	3301      	adds	r3, #1
100005e4:	2b07      	cmp	r3, #7
100005e6:	d9fa      	bls.n	100005de <runtime_init_per_core_irq_priorities+0xa>
100005e8:	bd10      	pop	{r4, pc}
100005ea:	46c0      	nop			; (mov r8, r8)
100005ec:	80808080 	.word	0x80808080

100005f0 <make_j_16>:
100005f0:	b510      	push	{r4, lr}
100005f2:	1a09      	subs	r1, r1, r0
100005f4:	1f08      	subs	r0, r1, #4
100005f6:	4b0b      	ldr	r3, [pc, #44]	; (10000624 <make_j_16+0x34>)
100005f8:	469c      	mov	ip, r3
100005fa:	4461      	add	r1, ip
100005fc:	4a0a      	ldr	r2, [pc, #40]	; (10000628 <make_j_16+0x38>)
100005fe:	4291      	cmp	r1, r2
10000600:	d808      	bhi.n	10000614 <make_j_16+0x24>
10000602:	07c3      	lsls	r3, r0, #31
10000604:	d406      	bmi.n	10000614 <make_j_16+0x24>
10000606:	1040      	asrs	r0, r0, #1
10000608:	0540      	lsls	r0, r0, #21
1000060a:	0d40      	lsrs	r0, r0, #21
1000060c:	4b07      	ldr	r3, [pc, #28]	; (1000062c <make_j_16+0x3c>)
1000060e:	4318      	orrs	r0, r3
10000610:	b280      	uxth	r0, r0
10000612:	bd10      	pop	{r4, pc}
10000614:	2102      	movs	r1, #2
10000616:	4b06      	ldr	r3, [pc, #24]	; (10000630 <make_j_16+0x40>)
10000618:	4a06      	ldr	r2, [pc, #24]	; (10000634 <make_j_16+0x44>)
1000061a:	31ff      	adds	r1, #255	; 0xff
1000061c:	4806      	ldr	r0, [pc, #24]	; (10000638 <make_j_16+0x48>)
1000061e:	f003 f8df 	bl	100037e0 <__assert_func>
10000622:	46c0      	nop			; (mov r8, r8)
10000624:	000007fc 	.word	0x000007fc
10000628:	00000ffe 	.word	0x00000ffe
1000062c:	ffffe000 	.word	0xffffe000
10000630:	10003dfc 	.word	0x10003dfc
10000634:	10004068 	.word	0x10004068
10000638:	10003e2c 	.word	0x10003e2c

1000063c <insert_bl_32>:
1000063c:	b510      	push	{r4, lr}
1000063e:	1a09      	subs	r1, r1, r0
10000640:	3904      	subs	r1, #4
10000642:	084c      	lsrs	r4, r1, #1
10000644:	0b09      	lsrs	r1, r1, #12
10000646:	d108      	bne.n	1000065a <insert_bl_32+0x1e>
10000648:	0549      	lsls	r1, r1, #21
1000064a:	0d49      	lsrs	r1, r1, #21
1000064c:	4a06      	ldr	r2, [pc, #24]	; (10000668 <insert_bl_32+0x2c>)
1000064e:	4311      	orrs	r1, r2
10000650:	8001      	strh	r1, [r0, #0]
10000652:	4b06      	ldr	r3, [pc, #24]	; (1000066c <insert_bl_32+0x30>)
10000654:	4323      	orrs	r3, r4
10000656:	8043      	strh	r3, [r0, #2]
10000658:	bd10      	pop	{r4, pc}
1000065a:	210a      	movs	r1, #10
1000065c:	4b04      	ldr	r3, [pc, #16]	; (10000670 <insert_bl_32+0x34>)
1000065e:	4a05      	ldr	r2, [pc, #20]	; (10000674 <insert_bl_32+0x38>)
10000660:	31ff      	adds	r1, #255	; 0xff
10000662:	4805      	ldr	r0, [pc, #20]	; (10000678 <insert_bl_32+0x3c>)
10000664:	f003 f8bc 	bl	100037e0 <__assert_func>
10000668:	fffff000 	.word	0xfffff000
1000066c:	fffff800 	.word	0xfffff800
10000670:	10003e7c 	.word	0x10003e7c
10000674:	10004044 	.word	0x10004044
10000678:	10003e2c 	.word	0x10003e2c

1000067c <irq_is_enabled>:
1000067c:	2301      	movs	r3, #1
1000067e:	4083      	lsls	r3, r0
10000680:	4a03      	ldr	r2, [pc, #12]	; (10000690 <irq_is_enabled+0x14>)
10000682:	6810      	ldr	r0, [r2, #0]
10000684:	4018      	ands	r0, r3
10000686:	1e43      	subs	r3, r0, #1
10000688:	4198      	sbcs	r0, r3
1000068a:	b2c0      	uxtb	r0, r0
1000068c:	4770      	bx	lr
1000068e:	46c0      	nop			; (mov r8, r8)
10000690:	e000e100 	.word	0xe000e100

10000694 <irq_set_mask_n_enabled>:
10000694:	2a00      	cmp	r2, #0
10000696:	d005      	beq.n	100006a4 <irq_set_mask_n_enabled+0x10>
10000698:	4b04      	ldr	r3, [pc, #16]	; (100006ac <irq_set_mask_n_enabled+0x18>)
1000069a:	22c0      	movs	r2, #192	; 0xc0
1000069c:	0052      	lsls	r2, r2, #1
1000069e:	5099      	str	r1, [r3, r2]
100006a0:	6019      	str	r1, [r3, #0]
100006a2:	4770      	bx	lr
100006a4:	4a01      	ldr	r2, [pc, #4]	; (100006ac <irq_set_mask_n_enabled+0x18>)
100006a6:	2380      	movs	r3, #128	; 0x80
100006a8:	50d1      	str	r1, [r2, r3]
100006aa:	e7fa      	b.n	100006a2 <irq_set_mask_n_enabled+0xe>
100006ac:	e000e100 	.word	0xe000e100

100006b0 <irq_set_enabled>:
100006b0:	b510      	push	{r4, lr}
100006b2:	000a      	movs	r2, r1
100006b4:	231f      	movs	r3, #31
100006b6:	4003      	ands	r3, r0
100006b8:	2101      	movs	r1, #1
100006ba:	4099      	lsls	r1, r3
100006bc:	0940      	lsrs	r0, r0, #5
100006be:	f7ff ffe9 	bl	10000694 <irq_set_mask_n_enabled>
100006c2:	bd10      	pop	{r4, pc}

100006c4 <irq_get_vtable_handler>:
100006c4:	4b02      	ldr	r3, [pc, #8]	; (100006d0 <irq_get_vtable_handler+0xc>)
100006c6:	689b      	ldr	r3, [r3, #8]
100006c8:	3010      	adds	r0, #16
100006ca:	0080      	lsls	r0, r0, #2
100006cc:	58c0      	ldr	r0, [r0, r3]
100006ce:	4770      	bx	lr
100006d0:	e000ed00 	.word	0xe000ed00

100006d4 <irq_set_exclusive_handler>:
100006d4:	b570      	push	{r4, r5, r6, lr}
100006d6:	0004      	movs	r4, r0
100006d8:	000d      	movs	r5, r1
100006da:	f3ef 8610 	mrs	r6, PRIMASK
100006de:	b672      	cpsid	i
100006e0:	4b0c      	ldr	r3, [pc, #48]	; (10000714 <irq_set_exclusive_handler+0x40>)
100006e2:	681b      	ldr	r3, [r3, #0]
100006e4:	2b00      	cmp	r3, #0
100006e6:	d0fb      	beq.n	100006e0 <irq_set_exclusive_handler+0xc>
100006e8:	f3bf 8f5f 	dmb	sy
100006ec:	0020      	movs	r0, r4
100006ee:	f7ff ffe9 	bl	100006c4 <irq_get_vtable_handler>
100006f2:	4b09      	ldr	r3, [pc, #36]	; (10000718 <irq_set_exclusive_handler+0x44>)
100006f4:	4298      	cmp	r0, r3
100006f6:	d001      	beq.n	100006fc <irq_set_exclusive_handler+0x28>
100006f8:	42a8      	cmp	r0, r5
100006fa:	d105      	bne.n	10000708 <irq_set_exclusive_handler+0x34>
100006fc:	0032      	movs	r2, r6
100006fe:	0029      	movs	r1, r5
10000700:	0020      	movs	r0, r4
10000702:	f7ff ff4f 	bl	100005a4 <set_raw_irq_handler_and_unlock>
10000706:	bd70      	pop	{r4, r5, r6, pc}
10000708:	4b04      	ldr	r3, [pc, #16]	; (1000071c <irq_set_exclusive_handler+0x48>)
1000070a:	4a05      	ldr	r2, [pc, #20]	; (10000720 <irq_set_exclusive_handler+0x4c>)
1000070c:	21e1      	movs	r1, #225	; 0xe1
1000070e:	4805      	ldr	r0, [pc, #20]	; (10000724 <irq_set_exclusive_handler+0x50>)
10000710:	f003 f866 	bl	100037e0 <__assert_func>
10000714:	d0000124 	.word	0xd0000124
10000718:	100001cd 	.word	0x100001cd
1000071c:	10003e8c 	.word	0x10003e8c
10000720:	10004084 	.word	0x10004084
10000724:	10003e2c 	.word	0x10003e2c

10000728 <irq_remove_handler>:
10000728:	b5f0      	push	{r4, r5, r6, r7, lr}
1000072a:	46ce      	mov	lr, r9
1000072c:	4647      	mov	r7, r8
1000072e:	b580      	push	{r7, lr}
10000730:	b083      	sub	sp, #12
10000732:	0006      	movs	r6, r0
10000734:	000d      	movs	r5, r1
10000736:	f3ef 8810 	mrs	r8, PRIMASK
1000073a:	b672      	cpsid	i
1000073c:	4b56      	ldr	r3, [pc, #344]	; (10000898 <irq_remove_handler+0x170>)
1000073e:	681b      	ldr	r3, [r3, #0]
10000740:	2b00      	cmp	r3, #0
10000742:	d0fb      	beq.n	1000073c <irq_remove_handler+0x14>
10000744:	f3bf 8f5f 	dmb	sy
10000748:	4b54      	ldr	r3, [pc, #336]	; (1000089c <irq_remove_handler+0x174>)
1000074a:	689a      	ldr	r2, [r3, #8]
1000074c:	0034      	movs	r4, r6
1000074e:	3410      	adds	r4, #16
10000750:	00a3      	lsls	r3, r4, #2
10000752:	58d7      	ldr	r7, [r2, r3]
10000754:	4b52      	ldr	r3, [pc, #328]	; (100008a0 <irq_remove_handler+0x178>)
10000756:	429f      	cmp	r7, r3
10000758:	d007      	beq.n	1000076a <irq_remove_handler+0x42>
1000075a:	42af      	cmp	r7, r5
1000075c:	d100      	bne.n	10000760 <irq_remove_handler+0x38>
1000075e:	e098      	b.n	10000892 <irq_remove_handler+0x16a>
10000760:	9701      	str	r7, [sp, #4]
10000762:	4b50      	ldr	r3, [pc, #320]	; (100008a4 <irq_remove_handler+0x17c>)
10000764:	1afb      	subs	r3, r7, r3
10000766:	2b2f      	cmp	r3, #47	; 0x2f
10000768:	d909      	bls.n	1000077e <irq_remove_handler+0x56>
1000076a:	4642      	mov	r2, r8
1000076c:	0039      	movs	r1, r7
1000076e:	0030      	movs	r0, r6
10000770:	f7ff ff18 	bl	100005a4 <set_raw_irq_handler_and_unlock>
10000774:	b003      	add	sp, #12
10000776:	bcc0      	pop	{r6, r7}
10000778:	46b9      	mov	r9, r7
1000077a:	46b0      	mov	r8, r6
1000077c:	bdf0      	pop	{r4, r5, r6, r7, pc}
1000077e:	0030      	movs	r0, r6
10000780:	f7ff ff7c 	bl	1000067c <irq_is_enabled>
10000784:	4681      	mov	r9, r0
10000786:	2100      	movs	r1, #0
10000788:	0030      	movs	r0, r6
1000078a:	f7ff ff91 	bl	100006b0 <irq_set_enabled>
1000078e:	f3bf 8f5f 	dmb	sy
10000792:	f3ef 8105 	mrs	r1, IPSR
10000796:	2900      	cmp	r1, #0
10000798:	d001      	beq.n	1000079e <irq_remove_handler+0x76>
1000079a:	428c      	cmp	r4, r1
1000079c:	d111      	bne.n	100007c2 <irq_remove_handler+0x9a>
1000079e:	2301      	movs	r3, #1
100007a0:	9c01      	ldr	r4, [sp, #4]
100007a2:	439c      	bics	r4, r3
100007a4:	2200      	movs	r2, #0
100007a6:	68a3      	ldr	r3, [r4, #8]
100007a8:	429d      	cmp	r5, r3
100007aa:	d012      	beq.n	100007d2 <irq_remove_handler+0xaa>
100007ac:	2206      	movs	r2, #6
100007ae:	56a2      	ldrsb	r2, [r4, r2]
100007b0:	2a00      	cmp	r2, #0
100007b2:	db0d      	blt.n	100007d0 <irq_remove_handler+0xa8>
100007b4:	0053      	lsls	r3, r2, #1
100007b6:	189b      	adds	r3, r3, r2
100007b8:	009b      	lsls	r3, r3, #2
100007ba:	0022      	movs	r2, r4
100007bc:	4c39      	ldr	r4, [pc, #228]	; (100008a4 <irq_remove_handler+0x17c>)
100007be:	18e4      	adds	r4, r4, r3
100007c0:	e7f1      	b.n	100007a6 <irq_remove_handler+0x7e>
100007c2:	21f4      	movs	r1, #244	; 0xf4
100007c4:	4b38      	ldr	r3, [pc, #224]	; (100008a8 <irq_remove_handler+0x180>)
100007c6:	4a39      	ldr	r2, [pc, #228]	; (100008ac <irq_remove_handler+0x184>)
100007c8:	31ff      	adds	r1, #255	; 0xff
100007ca:	4839      	ldr	r0, [pc, #228]	; (100008b0 <irq_remove_handler+0x188>)
100007cc:	f003 f808 	bl	100037e0 <__assert_func>
100007d0:	0022      	movs	r2, r4
100007d2:	429d      	cmp	r5, r3
100007d4:	d157      	bne.n	10000886 <irq_remove_handler+0x15e>
100007d6:	2506      	movs	r5, #6
100007d8:	5765      	ldrsb	r5, [r4, r5]
100007da:	2d00      	cmp	r5, #0
100007dc:	db39      	blt.n	10000852 <irq_remove_handler+0x12a>
100007de:	006b      	lsls	r3, r5, #1
100007e0:	195b      	adds	r3, r3, r5
100007e2:	009a      	lsls	r2, r3, #2
100007e4:	4b2f      	ldr	r3, [pc, #188]	; (100008a4 <irq_remove_handler+0x17c>)
100007e6:	189b      	adds	r3, r3, r2
100007e8:	689a      	ldr	r2, [r3, #8]
100007ea:	60a2      	str	r2, [r4, #8]
100007ec:	79da      	ldrb	r2, [r3, #7]
100007ee:	71e2      	strb	r2, [r4, #7]
100007f0:	2206      	movs	r2, #6
100007f2:	569a      	ldrsb	r2, [r3, r2]
100007f4:	71a2      	strb	r2, [r4, #6]
100007f6:	799b      	ldrb	r3, [r3, #6]
100007f8:	b25b      	sxtb	r3, r3
100007fa:	2b00      	cmp	r3, #0
100007fc:	da0f      	bge.n	1000081e <irq_remove_handler+0xf6>
100007fe:	482d      	ldr	r0, [pc, #180]	; (100008b4 <irq_remove_handler+0x18c>)
10000800:	80a0      	strh	r0, [r4, #4]
10000802:	006b      	lsls	r3, r5, #1
10000804:	195b      	adds	r3, r3, r5
10000806:	009b      	lsls	r3, r3, #2
10000808:	4a26      	ldr	r2, [pc, #152]	; (100008a4 <irq_remove_handler+0x17c>)
1000080a:	18d3      	adds	r3, r2, r3
1000080c:	4a2a      	ldr	r2, [pc, #168]	; (100008b8 <irq_remove_handler+0x190>)
1000080e:	7811      	ldrb	r1, [r2, #0]
10000810:	7199      	strb	r1, [r3, #6]
10000812:	7015      	strb	r5, [r2, #0]
10000814:	4649      	mov	r1, r9
10000816:	0030      	movs	r0, r6
10000818:	f7ff ff4a 	bl	100006b0 <irq_set_enabled>
1000081c:	e7a5      	b.n	1000076a <irq_remove_handler+0x42>
1000081e:	1d20      	adds	r0, r4, #4
10000820:	006b      	lsls	r3, r5, #1
10000822:	195b      	adds	r3, r3, r5
10000824:	009b      	lsls	r3, r3, #2
10000826:	4a1f      	ldr	r2, [pc, #124]	; (100008a4 <irq_remove_handler+0x17c>)
10000828:	189b      	adds	r3, r3, r2
1000082a:	1d1a      	adds	r2, r3, #4
1000082c:	889b      	ldrh	r3, [r3, #4]
1000082e:	0ad9      	lsrs	r1, r3, #11
10000830:	291c      	cmp	r1, #28
10000832:	d107      	bne.n	10000844 <irq_remove_handler+0x11c>
10000834:	055b      	lsls	r3, r3, #21
10000836:	155b      	asrs	r3, r3, #21
10000838:	3302      	adds	r3, #2
1000083a:	0059      	lsls	r1, r3, #1
1000083c:	1851      	adds	r1, r2, r1
1000083e:	f7ff fed7 	bl	100005f0 <make_j_16>
10000842:	e7dd      	b.n	10000800 <irq_remove_handler+0xd8>
10000844:	2110      	movs	r1, #16
10000846:	4b1d      	ldr	r3, [pc, #116]	; (100008bc <irq_remove_handler+0x194>)
10000848:	4a1d      	ldr	r2, [pc, #116]	; (100008c0 <irq_remove_handler+0x198>)
1000084a:	31ff      	adds	r1, #255	; 0xff
1000084c:	4818      	ldr	r0, [pc, #96]	; (100008b0 <irq_remove_handler+0x188>)
1000084e:	f002 ffc7 	bl	100037e0 <__assert_func>
10000852:	2900      	cmp	r1, #0
10000854:	d112      	bne.n	1000087c <irq_remove_handler+0x154>
10000856:	2a00      	cmp	r2, #0
10000858:	d00e      	beq.n	10000878 <irq_remove_handler+0x150>
1000085a:	23ff      	movs	r3, #255	; 0xff
1000085c:	7193      	strb	r3, [r2, #6]
1000085e:	4b19      	ldr	r3, [pc, #100]	; (100008c4 <irq_remove_handler+0x19c>)
10000860:	8093      	strh	r3, [r2, #4]
10000862:	4a15      	ldr	r2, [pc, #84]	; (100008b8 <irq_remove_handler+0x190>)
10000864:	7813      	ldrb	r3, [r2, #0]
10000866:	71a3      	strb	r3, [r4, #6]
10000868:	4b17      	ldr	r3, [pc, #92]	; (100008c8 <irq_remove_handler+0x1a0>)
1000086a:	490e      	ldr	r1, [pc, #56]	; (100008a4 <irq_remove_handler+0x17c>)
1000086c:	1a64      	subs	r4, r4, r1
1000086e:	4164      	adcs	r4, r4
10000870:	4363      	muls	r3, r4
10000872:	0d1b      	lsrs	r3, r3, #20
10000874:	7013      	strb	r3, [r2, #0]
10000876:	e7cd      	b.n	10000814 <irq_remove_handler+0xec>
10000878:	4f09      	ldr	r7, [pc, #36]	; (100008a0 <irq_remove_handler+0x178>)
1000087a:	e7f2      	b.n	10000862 <irq_remove_handler+0x13a>
1000087c:	1d20      	adds	r0, r4, #4
1000087e:	4913      	ldr	r1, [pc, #76]	; (100008cc <irq_remove_handler+0x1a4>)
10000880:	f7ff fedc 	bl	1000063c <insert_bl_32>
10000884:	e7c6      	b.n	10000814 <irq_remove_handler+0xec>
10000886:	4b12      	ldr	r3, [pc, #72]	; (100008d0 <irq_remove_handler+0x1a8>)
10000888:	4a08      	ldr	r2, [pc, #32]	; (100008ac <irq_remove_handler+0x184>)
1000088a:	4912      	ldr	r1, [pc, #72]	; (100008d4 <irq_remove_handler+0x1ac>)
1000088c:	4808      	ldr	r0, [pc, #32]	; (100008b0 <irq_remove_handler+0x188>)
1000088e:	f002 ffa7 	bl	100037e0 <__assert_func>
10000892:	4f03      	ldr	r7, [pc, #12]	; (100008a0 <irq_remove_handler+0x178>)
10000894:	e769      	b.n	1000076a <irq_remove_handler+0x42>
10000896:	46c0      	nop			; (mov r8, r8)
10000898:	d0000124 	.word	0xd0000124
1000089c:	e000ed00 	.word	0xe000ed00
100008a0:	100001cd 	.word	0x100001cd
100008a4:	2000023c 	.word	0x2000023c
100008a8:	10003fb0 	.word	0x10003fb0
100008ac:	10004054 	.word	0x10004054
100008b0:	10003e2c 	.word	0x10003e2c
100008b4:	0000bd01 	.word	0x0000bd01
100008b8:	200006d8 	.word	0x200006d8
100008bc:	10003f98 	.word	0x10003f98
100008c0:	10004074 	.word	0x10004074
100008c4:	ffffbd01 	.word	0xffffbd01
100008c8:	0000aaaa 	.word	0x0000aaaa
100008cc:	20000276 	.word	0x20000276
100008d0:	10003fe4 	.word	0x10003fe4
100008d4:	00000235 	.word	0x00000235

100008d8 <irq_add_tail_to_free_list>:
100008d8:	b570      	push	{r4, r5, r6, lr}
100008da:	2101      	movs	r1, #1
100008dc:	4301      	orrs	r1, r0
100008de:	4b2c      	ldr	r3, [pc, #176]	; (10000990 <irq_add_tail_to_free_list+0xb8>)
100008e0:	1acb      	subs	r3, r1, r3
100008e2:	2b2f      	cmp	r3, #47	; 0x2f
100008e4:	d828      	bhi.n	10000938 <irq_add_tail_to_free_list+0x60>
100008e6:	f3ef 8305 	mrs	r3, IPSR
100008ea:	2b00      	cmp	r3, #0
100008ec:	d02a      	beq.n	10000944 <irq_add_tail_to_free_list+0x6c>
100008ee:	f3ef 8c10 	mrs	ip, PRIMASK
100008f2:	b672      	cpsid	i
100008f4:	4a27      	ldr	r2, [pc, #156]	; (10000994 <irq_add_tail_to_free_list+0xbc>)
100008f6:	6812      	ldr	r2, [r2, #0]
100008f8:	2a00      	cmp	r2, #0
100008fa:	d0fb      	beq.n	100008f4 <irq_add_tail_to_free_list+0x1c>
100008fc:	f3bf 8f5f 	dmb	sy
10000900:	4a25      	ldr	r2, [pc, #148]	; (10000998 <irq_add_tail_to_free_list+0xc0>)
10000902:	0004      	movs	r4, r0
10000904:	4d22      	ldr	r5, [pc, #136]	; (10000990 <irq_add_tail_to_free_list+0xb8>)
10000906:	1b64      	subs	r4, r4, r5
10000908:	4164      	adcs	r4, r4
1000090a:	4362      	muls	r2, r4
1000090c:	0d12      	lsrs	r2, r2, #20
1000090e:	b254      	sxtb	r4, r2
10000910:	4a22      	ldr	r2, [pc, #136]	; (1000099c <irq_add_tail_to_free_list+0xc4>)
10000912:	6892      	ldr	r2, [r2, #8]
10000914:	009b      	lsls	r3, r3, #2
10000916:	58d2      	ldr	r2, [r2, r3]
10000918:	428a      	cmp	r2, r1
1000091a:	d019      	beq.n	10000950 <irq_add_tail_to_free_list+0x78>
1000091c:	2200      	movs	r2, #0
1000091e:	2a03      	cmp	r2, #3
10000920:	d830      	bhi.n	10000984 <irq_add_tail_to_free_list+0xac>
10000922:	0053      	lsls	r3, r2, #1
10000924:	189b      	adds	r3, r3, r2
10000926:	009b      	lsls	r3, r3, #2
10000928:	4919      	ldr	r1, [pc, #100]	; (10000990 <irq_add_tail_to_free_list+0xb8>)
1000092a:	18cb      	adds	r3, r1, r3
1000092c:	799b      	ldrb	r3, [r3, #6]
1000092e:	b25b      	sxtb	r3, r3
10000930:	42a3      	cmp	r3, r4
10000932:	d01d      	beq.n	10000970 <irq_add_tail_to_free_list+0x98>
10000934:	3201      	adds	r2, #1
10000936:	e7f2      	b.n	1000091e <irq_add_tail_to_free_list+0x46>
10000938:	4b19      	ldr	r3, [pc, #100]	; (100009a0 <irq_add_tail_to_free_list+0xc8>)
1000093a:	4a1a      	ldr	r2, [pc, #104]	; (100009a4 <irq_add_tail_to_free_list+0xcc>)
1000093c:	491a      	ldr	r1, [pc, #104]	; (100009a8 <irq_add_tail_to_free_list+0xd0>)
1000093e:	481b      	ldr	r0, [pc, #108]	; (100009ac <irq_add_tail_to_free_list+0xd4>)
10000940:	f002 ff4e 	bl	100037e0 <__assert_func>
10000944:	4b1a      	ldr	r3, [pc, #104]	; (100009b0 <irq_add_tail_to_free_list+0xd8>)
10000946:	4a17      	ldr	r2, [pc, #92]	; (100009a4 <irq_add_tail_to_free_list+0xcc>)
10000948:	491a      	ldr	r1, [pc, #104]	; (100009b4 <irq_add_tail_to_free_list+0xdc>)
1000094a:	4818      	ldr	r0, [pc, #96]	; (100009ac <irq_add_tail_to_free_list+0xd4>)
1000094c:	f002 ff48 	bl	100037e0 <__assert_func>
10000950:	4a12      	ldr	r2, [pc, #72]	; (1000099c <irq_add_tail_to_free_list+0xc4>)
10000952:	6892      	ldr	r2, [r2, #8]
10000954:	4918      	ldr	r1, [pc, #96]	; (100009b8 <irq_add_tail_to_free_list+0xe0>)
10000956:	50d1      	str	r1, [r2, r3]
10000958:	4b18      	ldr	r3, [pc, #96]	; (100009bc <irq_add_tail_to_free_list+0xe4>)
1000095a:	781a      	ldrb	r2, [r3, #0]
1000095c:	7182      	strb	r2, [r0, #6]
1000095e:	701c      	strb	r4, [r3, #0]
10000960:	f3bf 8f5f 	dmb	sy
10000964:	4b0b      	ldr	r3, [pc, #44]	; (10000994 <irq_add_tail_to_free_list+0xbc>)
10000966:	2200      	movs	r2, #0
10000968:	601a      	str	r2, [r3, #0]
1000096a:	f38c 8810 	msr	PRIMASK, ip
1000096e:	bd70      	pop	{r4, r5, r6, pc}
10000970:	000d      	movs	r5, r1
10000972:	0053      	lsls	r3, r2, #1
10000974:	1899      	adds	r1, r3, r2
10000976:	0089      	lsls	r1, r1, #2
10000978:	1869      	adds	r1, r5, r1
1000097a:	26ff      	movs	r6, #255	; 0xff
1000097c:	718e      	strb	r6, [r1, #6]
1000097e:	4a10      	ldr	r2, [pc, #64]	; (100009c0 <irq_add_tail_to_free_list+0xe8>)
10000980:	808a      	strh	r2, [r1, #4]
10000982:	e7e9      	b.n	10000958 <irq_add_tail_to_free_list+0x80>
10000984:	4b0f      	ldr	r3, [pc, #60]	; (100009c4 <irq_add_tail_to_free_list+0xec>)
10000986:	4a07      	ldr	r2, [pc, #28]	; (100009a4 <irq_add_tail_to_free_list+0xcc>)
10000988:	490f      	ldr	r1, [pc, #60]	; (100009c8 <irq_add_tail_to_free_list+0xf0>)
1000098a:	4808      	ldr	r0, [pc, #32]	; (100009ac <irq_add_tail_to_free_list+0xd4>)
1000098c:	f002 ff28 	bl	100037e0 <__assert_func>
10000990:	2000023c 	.word	0x2000023c
10000994:	d0000124 	.word	0xd0000124
10000998:	0000aaaa 	.word	0x0000aaaa
1000099c:	e000ed00 	.word	0xe000ed00
100009a0:	10003fec 	.word	0x10003fec
100009a4:	10004028 	.word	0x10004028
100009a8:	0000026e 	.word	0x0000026e
100009ac:	10003e2c 	.word	0x10003e2c
100009b0:	10004014 	.word	0x10004014
100009b4:	00000271 	.word	0x00000271
100009b8:	100001cd 	.word	0x100001cd
100009bc:	200006d8 	.word	0x200006d8
100009c0:	ffffbd01 	.word	0xffffbd01
100009c4:	10004020 	.word	0x10004020
100009c8:	00000282 	.word	0x00000282

100009cc <lock_init>:
100009cc:	4b02      	ldr	r3, [pc, #8]	; (100009d8 <lock_init+0xc>)
100009ce:	469c      	mov	ip, r3
100009d0:	4461      	add	r1, ip
100009d2:	0089      	lsls	r1, r1, #2
100009d4:	6001      	str	r1, [r0, #0]
100009d6:	4770      	bx	lr
100009d8:	34000040 	.word	0x34000040

100009dc <mutex_init>:
100009dc:	b510      	push	{r4, lr}
100009de:	0004      	movs	r4, r0
100009e0:	f7ff fdc2 	bl	10000568 <next_striped_spin_lock_num>
100009e4:	0001      	movs	r1, r0
100009e6:	0020      	movs	r0, r4
100009e8:	f7ff fff0 	bl	100009cc <lock_init>
100009ec:	23ff      	movs	r3, #255	; 0xff
100009ee:	7123      	strb	r3, [r4, #4]
100009f0:	f3bf 8f5f 	dmb	sy
100009f4:	bd10      	pop	{r4, pc}

100009f6 <recursive_mutex_init>:
100009f6:	b510      	push	{r4, lr}
100009f8:	0004      	movs	r4, r0
100009fa:	f7ff fdb5 	bl	10000568 <next_striped_spin_lock_num>
100009fe:	0001      	movs	r1, r0
10000a00:	0020      	movs	r0, r4
10000a02:	f7ff ffe3 	bl	100009cc <lock_init>
10000a06:	23ff      	movs	r3, #255	; 0xff
10000a08:	7123      	strb	r3, [r4, #4]
10000a0a:	2300      	movs	r3, #0
10000a0c:	7163      	strb	r3, [r4, #5]
10000a0e:	f3bf 8f5f 	dmb	sy
10000a12:	bd10      	pop	{r4, pc}

10000a14 <runtime_init_mutex>:
10000a14:	b510      	push	{r4, lr}
10000a16:	4c0d      	ldr	r4, [pc, #52]	; (10000a4c <runtime_init_mutex+0x38>)
10000a18:	e009      	b.n	10000a2e <runtime_init_mutex+0x1a>
10000a1a:	4b0d      	ldr	r3, [pc, #52]	; (10000a50 <runtime_init_mutex+0x3c>)
10000a1c:	4a0d      	ldr	r2, [pc, #52]	; (10000a54 <runtime_init_mutex+0x40>)
10000a1e:	211a      	movs	r1, #26
10000a20:	480d      	ldr	r0, [pc, #52]	; (10000a58 <runtime_init_mutex+0x44>)
10000a22:	f002 fedd 	bl	100037e0 <__assert_func>
10000a26:	0020      	movs	r0, r4
10000a28:	f7ff ffd8 	bl	100009dc <mutex_init>
10000a2c:	3408      	adds	r4, #8
10000a2e:	4b0b      	ldr	r3, [pc, #44]	; (10000a5c <runtime_init_mutex+0x48>)
10000a30:	429c      	cmp	r4, r3
10000a32:	d209      	bcs.n	10000a48 <runtime_init_mutex+0x34>
10000a34:	6823      	ldr	r3, [r4, #0]
10000a36:	2b00      	cmp	r3, #0
10000a38:	d0f5      	beq.n	10000a26 <runtime_init_mutex+0x12>
10000a3a:	2b01      	cmp	r3, #1
10000a3c:	d1ed      	bne.n	10000a1a <runtime_init_mutex+0x6>
10000a3e:	0020      	movs	r0, r4
10000a40:	f7ff ffd9 	bl	100009f6 <recursive_mutex_init>
10000a44:	3408      	adds	r4, #8
10000a46:	e7f2      	b.n	10000a2e <runtime_init_mutex+0x1a>
10000a48:	bd10      	pop	{r4, pc}
10000a4a:	46c0      	nop			; (mov r8, r8)
10000a4c:	200002d8 	.word	0x200002d8
10000a50:	100040a0 	.word	0x100040a0
10000a54:	10004180 	.word	0x10004180
10000a58:	100040c0 	.word	0x100040c0
10000a5c:	200002e0 	.word	0x200002e0

10000a60 <make_alarm_id>:
10000a60:	0400      	lsls	r0, r0, #16
10000a62:	4308      	orrs	r0, r1
10000a64:	4770      	bx	lr
	...

10000a68 <sleep_until_callback>:
10000a68:	4b0a      	ldr	r3, [pc, #40]	; (10000a94 <sleep_until_callback+0x2c>)
10000a6a:	681a      	ldr	r2, [r3, #0]
10000a6c:	f3ef 8110 	mrs	r1, PRIMASK
10000a70:	b672      	cpsid	i
10000a72:	6813      	ldr	r3, [r2, #0]
10000a74:	2b00      	cmp	r3, #0
10000a76:	d0fc      	beq.n	10000a72 <sleep_until_callback+0xa>
10000a78:	f3bf 8f5f 	dmb	sy
10000a7c:	4b05      	ldr	r3, [pc, #20]	; (10000a94 <sleep_until_callback+0x2c>)
10000a7e:	681b      	ldr	r3, [r3, #0]
10000a80:	f3bf 8f5f 	dmb	sy
10000a84:	2200      	movs	r2, #0
10000a86:	601a      	str	r2, [r3, #0]
10000a88:	f381 8810 	msr	PRIMASK, r1
10000a8c:	bf40      	sev
10000a8e:	2000      	movs	r0, #0
10000a90:	2100      	movs	r1, #0
10000a92:	4770      	bx	lr
10000a94:	200006cc 	.word	0x200006cc

10000a98 <alarm_pool_irq_handler>:
10000a98:	b5f0      	push	{r4, r5, r6, r7, lr}
10000a9a:	46de      	mov	lr, fp
10000a9c:	4657      	mov	r7, sl
10000a9e:	464e      	mov	r6, r9
10000aa0:	4645      	mov	r5, r8
10000aa2:	b5e0      	push	{r5, r6, r7, lr}
10000aa4:	b083      	sub	sp, #12
10000aa6:	f3ef 8305 	mrs	r3, IPSR
10000aaa:	2203      	movs	r2, #3
10000aac:	401a      	ands	r2, r3
10000aae:	4693      	mov	fp, r2
10000ab0:	0092      	lsls	r2, r2, #2
10000ab2:	4bab      	ldr	r3, [pc, #684]	; (10000d60 <alarm_pool_irq_handler+0x2c8>)
10000ab4:	58d3      	ldr	r3, [r2, r3]
10000ab6:	4698      	mov	r8, r3
10000ab8:	781b      	ldrb	r3, [r3, #0]
10000aba:	455b      	cmp	r3, fp
10000abc:	d10c      	bne.n	10000ad8 <alarm_pool_irq_handler+0x40>
10000abe:	48a9      	ldr	r0, [pc, #676]	; (10000d64 <alarm_pool_irq_handler+0x2cc>)
10000ac0:	f000 fb04 	bl	100010cc <timer_time_us_64>
10000ac4:	0002      	movs	r2, r0
10000ac6:	000b      	movs	r3, r1
10000ac8:	2101      	movs	r1, #1
10000aca:	4658      	mov	r0, fp
10000acc:	4081      	lsls	r1, r0
10000ace:	0008      	movs	r0, r1
10000ad0:	468a      	mov	sl, r1
10000ad2:	49a5      	ldr	r1, [pc, #660]	; (10000d68 <alarm_pool_irq_handler+0x2d0>)
10000ad4:	6008      	str	r0, [r1, #0]
10000ad6:	e077      	b.n	10000bc8 <alarm_pool_irq_handler+0x130>
10000ad8:	4ba4      	ldr	r3, [pc, #656]	; (10000d6c <alarm_pool_irq_handler+0x2d4>)
10000ada:	4aa5      	ldr	r2, [pc, #660]	; (10000d70 <alarm_pool_irq_handler+0x2d8>)
10000adc:	2190      	movs	r1, #144	; 0x90
10000ade:	48a5      	ldr	r0, [pc, #660]	; (10000d74 <alarm_pool_irq_handler+0x2dc>)
10000ae0:	f002 fe7e 	bl	100037e0 <__assert_func>
10000ae4:	694c      	ldr	r4, [r1, #20]
10000ae6:	0020      	movs	r0, r4
10000ae8:	6923      	ldr	r3, [r4, #16]
10000aea:	4798      	blx	r3
10000aec:	2800      	cmp	r0, #0
10000aee:	d025      	beq.n	10000b3c <alarm_pool_irq_handler+0xa4>
10000af0:	6823      	ldr	r3, [r4, #0]
10000af2:	6864      	ldr	r4, [r4, #4]
10000af4:	9300      	str	r3, [sp, #0]
10000af6:	9401      	str	r4, [sp, #4]
10000af8:	e08d      	b.n	10000c16 <alarm_pool_irq_handler+0x17e>
10000afa:	489a      	ldr	r0, [pc, #616]	; (10000d64 <alarm_pool_irq_handler+0x2cc>)
10000afc:	f000 fae6 	bl	100010cc <timer_time_us_64>
10000b00:	9e00      	ldr	r6, [sp, #0]
10000b02:	9f01      	ldr	r7, [sp, #4]
10000b04:	1836      	adds	r6, r6, r0
10000b06:	414f      	adcs	r7, r1
10000b08:	9600      	str	r6, [sp, #0]
10000b0a:	9701      	str	r7, [sp, #4]
10000b0c:	e091      	b.n	10000c32 <alarm_pool_irq_handler+0x19a>
10000b0e:	4684      	mov	ip, r0
10000b10:	4663      	mov	r3, ip
10000b12:	2400      	movs	r4, #0
10000b14:	5f1c      	ldrsh	r4, [r3, r4]
10000b16:	2c00      	cmp	r4, #0
10000b18:	db0b      	blt.n	10000b32 <alarm_pool_irq_handler+0x9a>
10000b1a:	0060      	lsls	r0, r4, #1
10000b1c:	1900      	adds	r0, r0, r4
10000b1e:	00c0      	lsls	r0, r0, #3
10000b20:	1808      	adds	r0, r1, r0
10000b22:	9a00      	ldr	r2, [sp, #0]
10000b24:	9b01      	ldr	r3, [sp, #4]
10000b26:	6886      	ldr	r6, [r0, #8]
10000b28:	68c7      	ldr	r7, [r0, #12]
10000b2a:	1b92      	subs	r2, r2, r6
10000b2c:	41bb      	sbcs	r3, r7
10000b2e:	2b00      	cmp	r3, #0
10000b30:	daed      	bge.n	10000b0e <alarm_pool_irq_handler+0x76>
10000b32:	464b      	mov	r3, r9
10000b34:	801c      	strh	r4, [r3, #0]
10000b36:	4663      	mov	r3, ip
10000b38:	801d      	strh	r5, [r3, #0]
10000b3a:	e01b      	b.n	10000b74 <alarm_pool_irq_handler+0xdc>
10000b3c:	464b      	mov	r3, r9
10000b3e:	2200      	movs	r2, #0
10000b40:	5e9b      	ldrsh	r3, [r3, r2]
10000b42:	4642      	mov	r2, r8
10000b44:	8113      	strh	r3, [r2, #8]
10000b46:	6912      	ldr	r2, [r2, #16]
10000b48:	f3ef 8310 	mrs	r3, PRIMASK
10000b4c:	b672      	cpsid	i
10000b4e:	6811      	ldr	r1, [r2, #0]
10000b50:	2900      	cmp	r1, #0
10000b52:	d0fc      	beq.n	10000b4e <alarm_pool_irq_handler+0xb6>
10000b54:	f3bf 8f5f 	dmb	sy
10000b58:	4642      	mov	r2, r8
10000b5a:	2102      	movs	r1, #2
10000b5c:	5e52      	ldrsh	r2, [r2, r1]
10000b5e:	4649      	mov	r1, r9
10000b60:	800a      	strh	r2, [r1, #0]
10000b62:	4642      	mov	r2, r8
10000b64:	8055      	strh	r5, [r2, #2]
10000b66:	6912      	ldr	r2, [r2, #16]
10000b68:	f3bf 8f5f 	dmb	sy
10000b6c:	2100      	movs	r1, #0
10000b6e:	6011      	str	r1, [r2, #0]
10000b70:	f383 8810 	msr	PRIMASK, r3
10000b74:	4643      	mov	r3, r8
10000b76:	889b      	ldrh	r3, [r3, #4]
10000b78:	b21b      	sxth	r3, r3
10000b7a:	2b00      	cmp	r3, #0
10000b7c:	da74      	bge.n	10000c68 <alarm_pool_irq_handler+0x1d0>
10000b7e:	4643      	mov	r3, r8
10000b80:	799b      	ldrb	r3, [r3, #6]
10000b82:	2b00      	cmp	r3, #0
10000b84:	d000      	beq.n	10000b88 <alarm_pool_irq_handler+0xf0>
10000b86:	e0b6      	b.n	10000cf6 <alarm_pool_irq_handler+0x25e>
10000b88:	4876      	ldr	r0, [pc, #472]	; (10000d64 <alarm_pool_irq_handler+0x2cc>)
10000b8a:	f000 fa9f 	bl	100010cc <timer_time_us_64>
10000b8e:	0002      	movs	r2, r0
10000b90:	000b      	movs	r3, r1
10000b92:	4641      	mov	r1, r8
10000b94:	2008      	movs	r0, #8
10000b96:	5e08      	ldrsh	r0, [r1, r0]
10000b98:	2800      	cmp	r0, #0
10000b9a:	da00      	bge.n	10000b9e <alarm_pool_irq_handler+0x106>
10000b9c:	e0d9      	b.n	10000d52 <alarm_pool_irq_handler+0x2ba>
10000b9e:	0041      	lsls	r1, r0, #1
10000ba0:	1809      	adds	r1, r1, r0
10000ba2:	00c9      	lsls	r1, r1, #3
10000ba4:	4640      	mov	r0, r8
10000ba6:	6940      	ldr	r0, [r0, #20]
10000ba8:	4684      	mov	ip, r0
10000baa:	4461      	add	r1, ip
10000bac:	6888      	ldr	r0, [r1, #8]
10000bae:	68c9      	ldr	r1, [r1, #12]
10000bb0:	465c      	mov	r4, fp
10000bb2:	3404      	adds	r4, #4
10000bb4:	00a4      	lsls	r4, r4, #2
10000bb6:	4d6b      	ldr	r5, [pc, #428]	; (10000d64 <alarm_pool_irq_handler+0x2cc>)
10000bb8:	5160      	str	r0, [r4, r5]
10000bba:	1a80      	subs	r0, r0, r2
10000bbc:	4199      	sbcs	r1, r3
10000bbe:	2900      	cmp	r1, #0
10000bc0:	dd00      	ble.n	10000bc4 <alarm_pool_irq_handler+0x12c>
10000bc2:	e0c6      	b.n	10000d52 <alarm_pool_irq_handler+0x2ba>
10000bc4:	d100      	bne.n	10000bc8 <alarm_pool_irq_handler+0x130>
10000bc6:	e0c1      	b.n	10000d4c <alarm_pool_irq_handler+0x2b4>
10000bc8:	4966      	ldr	r1, [pc, #408]	; (10000d64 <alarm_pool_irq_handler+0x2cc>)
10000bca:	4650      	mov	r0, sl
10000bcc:	6348      	str	r0, [r1, #52]	; 0x34
10000bce:	4641      	mov	r1, r8
10000bd0:	2508      	movs	r5, #8
10000bd2:	5f4d      	ldrsh	r5, [r1, r5]
10000bd4:	2d00      	cmp	r5, #0
10000bd6:	dbcd      	blt.n	10000b74 <alarm_pool_irq_handler+0xdc>
10000bd8:	0069      	lsls	r1, r5, #1
10000bda:	1949      	adds	r1, r1, r5
10000bdc:	00c9      	lsls	r1, r1, #3
10000bde:	4640      	mov	r0, r8
10000be0:	6940      	ldr	r0, [r0, #20]
10000be2:	4681      	mov	r9, r0
10000be4:	4489      	add	r9, r1
10000be6:	4649      	mov	r1, r9
10000be8:	688e      	ldr	r6, [r1, #8]
10000bea:	68cf      	ldr	r7, [r1, #12]
10000bec:	1b92      	subs	r2, r2, r6
10000bee:	41bb      	sbcs	r3, r7
10000bf0:	2b00      	cmp	r3, #0
10000bf2:	dbbf      	blt.n	10000b74 <alarm_pool_irq_handler+0xdc>
10000bf4:	2f00      	cmp	r7, #0
10000bf6:	dba1      	blt.n	10000b3c <alarm_pool_irq_handler+0xa4>
10000bf8:	690c      	ldr	r4, [r1, #16]
10000bfa:	4b5f      	ldr	r3, [pc, #380]	; (10000d78 <alarm_pool_irq_handler+0x2e0>)
10000bfc:	429c      	cmp	r4, r3
10000bfe:	d100      	bne.n	10000c02 <alarm_pool_irq_handler+0x16a>
10000c00:	e770      	b.n	10000ae4 <alarm_pool_irq_handler+0x4c>
10000c02:	8849      	ldrh	r1, [r1, #2]
10000c04:	b289      	uxth	r1, r1
10000c06:	0028      	movs	r0, r5
10000c08:	f7ff ff2a 	bl	10000a60 <make_alarm_id>
10000c0c:	464b      	mov	r3, r9
10000c0e:	6959      	ldr	r1, [r3, #20]
10000c10:	47a0      	blx	r4
10000c12:	9000      	str	r0, [sp, #0]
10000c14:	9101      	str	r1, [sp, #4]
10000c16:	9900      	ldr	r1, [sp, #0]
10000c18:	9a01      	ldr	r2, [sp, #4]
10000c1a:	000b      	movs	r3, r1
10000c1c:	4313      	orrs	r3, r2
10000c1e:	d100      	bne.n	10000c22 <alarm_pool_irq_handler+0x18a>
10000c20:	e78c      	b.n	10000b3c <alarm_pool_irq_handler+0xa4>
10000c22:	000b      	movs	r3, r1
10000c24:	1e14      	subs	r4, r2, #0
10000c26:	db00      	blt.n	10000c2a <alarm_pool_irq_handler+0x192>
10000c28:	e767      	b.n	10000afa <alarm_pool_irq_handler+0x62>
10000c2a:	1af6      	subs	r6, r6, r3
10000c2c:	41a7      	sbcs	r7, r4
10000c2e:	9600      	str	r6, [sp, #0]
10000c30:	9701      	str	r7, [sp, #4]
10000c32:	464b      	mov	r3, r9
10000c34:	9e00      	ldr	r6, [sp, #0]
10000c36:	9f01      	ldr	r7, [sp, #4]
10000c38:	609e      	str	r6, [r3, #8]
10000c3a:	60df      	str	r7, [r3, #12]
10000c3c:	2000      	movs	r0, #0
10000c3e:	5e18      	ldrsh	r0, [r3, r0]
10000c40:	2800      	cmp	r0, #0
10000c42:	db97      	blt.n	10000b74 <alarm_pool_irq_handler+0xdc>
10000c44:	4643      	mov	r3, r8
10000c46:	6959      	ldr	r1, [r3, #20]
10000c48:	0043      	lsls	r3, r0, #1
10000c4a:	181b      	adds	r3, r3, r0
10000c4c:	00db      	lsls	r3, r3, #3
10000c4e:	18cb      	adds	r3, r1, r3
10000c50:	689a      	ldr	r2, [r3, #8]
10000c52:	68db      	ldr	r3, [r3, #12]
10000c54:	1ab6      	subs	r6, r6, r2
10000c56:	419f      	sbcs	r7, r3
10000c58:	2f00      	cmp	r7, #0
10000c5a:	db8b      	blt.n	10000b74 <alarm_pool_irq_handler+0xdc>
10000c5c:	4643      	mov	r3, r8
10000c5e:	8118      	strh	r0, [r3, #8]
10000c60:	2308      	movs	r3, #8
10000c62:	4443      	add	r3, r8
10000c64:	469c      	mov	ip, r3
10000c66:	e753      	b.n	10000b10 <alarm_pool_irq_handler+0x78>
10000c68:	4643      	mov	r3, r8
10000c6a:	691a      	ldr	r2, [r3, #16]
10000c6c:	f3ef 8110 	mrs	r1, PRIMASK
10000c70:	b672      	cpsid	i
10000c72:	6813      	ldr	r3, [r2, #0]
10000c74:	2b00      	cmp	r3, #0
10000c76:	d0fc      	beq.n	10000c72 <alarm_pool_irq_handler+0x1da>
10000c78:	f3bf 8f5f 	dmb	sy
10000c7c:	4643      	mov	r3, r8
10000c7e:	889b      	ldrh	r3, [r3, #4]
10000c80:	b21b      	sxth	r3, r3
10000c82:	4699      	mov	r9, r3
10000c84:	2301      	movs	r3, #1
10000c86:	425b      	negs	r3, r3
10000c88:	4642      	mov	r2, r8
10000c8a:	8093      	strh	r3, [r2, #4]
10000c8c:	6913      	ldr	r3, [r2, #16]
10000c8e:	f3bf 8f5f 	dmb	sy
10000c92:	2200      	movs	r2, #0
10000c94:	601a      	str	r2, [r3, #0]
10000c96:	f381 8810 	msr	PRIMASK, r1
10000c9a:	e018      	b.n	10000cce <alarm_pool_irq_handler+0x236>
10000c9c:	0026      	movs	r6, r4
10000c9e:	2300      	movs	r3, #0
10000ca0:	5ef5      	ldrsh	r5, [r6, r3]
10000ca2:	2d00      	cmp	r5, #0
10000ca4:	db0b      	blt.n	10000cbe <alarm_pool_irq_handler+0x226>
10000ca6:	006c      	lsls	r4, r5, #1
10000ca8:	1964      	adds	r4, r4, r5
10000caa:	00e4      	lsls	r4, r4, #3
10000cac:	193c      	adds	r4, r7, r4
10000cae:	9a00      	ldr	r2, [sp, #0]
10000cb0:	9b01      	ldr	r3, [sp, #4]
10000cb2:	68a0      	ldr	r0, [r4, #8]
10000cb4:	68e1      	ldr	r1, [r4, #12]
10000cb6:	1a12      	subs	r2, r2, r0
10000cb8:	418b      	sbcs	r3, r1
10000cba:	2b00      	cmp	r3, #0
10000cbc:	daee      	bge.n	10000c9c <alarm_pool_irq_handler+0x204>
10000cbe:	464b      	mov	r3, r9
10000cc0:	8033      	strh	r3, [r6, #0]
10000cc2:	4663      	mov	r3, ip
10000cc4:	2200      	movs	r2, #0
10000cc6:	5e9b      	ldrsh	r3, [r3, r2]
10000cc8:	4699      	mov	r9, r3
10000cca:	4663      	mov	r3, ip
10000ccc:	801d      	strh	r5, [r3, #0]
10000cce:	464b      	mov	r3, r9
10000cd0:	2b00      	cmp	r3, #0
10000cd2:	da00      	bge.n	10000cd6 <alarm_pool_irq_handler+0x23e>
10000cd4:	e753      	b.n	10000b7e <alarm_pool_irq_handler+0xe6>
10000cd6:	4643      	mov	r3, r8
10000cd8:	695f      	ldr	r7, [r3, #20]
10000cda:	464b      	mov	r3, r9
10000cdc:	005b      	lsls	r3, r3, #1
10000cde:	444b      	add	r3, r9
10000ce0:	00db      	lsls	r3, r3, #3
10000ce2:	469c      	mov	ip, r3
10000ce4:	44bc      	add	ip, r7
10000ce6:	4663      	mov	r3, ip
10000ce8:	68dc      	ldr	r4, [r3, #12]
10000cea:	689b      	ldr	r3, [r3, #8]
10000cec:	9300      	str	r3, [sp, #0]
10000cee:	9401      	str	r4, [sp, #4]
10000cf0:	4646      	mov	r6, r8
10000cf2:	3608      	adds	r6, #8
10000cf4:	e7d3      	b.n	10000c9e <alarm_pool_irq_handler+0x206>
10000cf6:	2300      	movs	r3, #0
10000cf8:	4642      	mov	r2, r8
10000cfa:	7193      	strb	r3, [r2, #6]
10000cfc:	4641      	mov	r1, r8
10000cfe:	3108      	adds	r1, #8
10000d00:	4643      	mov	r3, r8
10000d02:	2008      	movs	r0, #8
10000d04:	5e18      	ldrsh	r0, [r3, r0]
10000d06:	e011      	b.n	10000d2c <alarm_pool_irq_handler+0x294>
10000d08:	2201      	movs	r2, #1
10000d0a:	4252      	negs	r2, r2
10000d0c:	17d3      	asrs	r3, r2, #31
10000d0e:	60a2      	str	r2, [r4, #8]
10000d10:	60e3      	str	r3, [r4, #12]
10000d12:	4643      	mov	r3, r8
10000d14:	2208      	movs	r2, #8
10000d16:	5e9b      	ldrsh	r3, [r3, r2]
10000d18:	4283      	cmp	r3, r0
10000d1a:	d006      	beq.n	10000d2a <alarm_pool_irq_handler+0x292>
10000d1c:	800d      	strh	r5, [r1, #0]
10000d1e:	4643      	mov	r3, r8
10000d20:	2208      	movs	r2, #8
10000d22:	5e9b      	ldrsh	r3, [r3, r2]
10000d24:	8023      	strh	r3, [r4, #0]
10000d26:	4643      	mov	r3, r8
10000d28:	8118      	strh	r0, [r3, #8]
10000d2a:	0028      	movs	r0, r5
10000d2c:	1c43      	adds	r3, r0, #1
10000d2e:	d100      	bne.n	10000d32 <alarm_pool_irq_handler+0x29a>
10000d30:	e72a      	b.n	10000b88 <alarm_pool_irq_handler+0xf0>
10000d32:	4643      	mov	r3, r8
10000d34:	695a      	ldr	r2, [r3, #20]
10000d36:	0043      	lsls	r3, r0, #1
10000d38:	181b      	adds	r3, r3, r0
10000d3a:	00db      	lsls	r3, r3, #3
10000d3c:	18d4      	adds	r4, r2, r3
10000d3e:	5ed5      	ldrsh	r5, [r2, r3]
10000d40:	8863      	ldrh	r3, [r4, #2]
10000d42:	b21b      	sxth	r3, r3
10000d44:	2b00      	cmp	r3, #0
10000d46:	dbdf      	blt.n	10000d08 <alarm_pool_irq_handler+0x270>
10000d48:	0021      	movs	r1, r4
10000d4a:	e7ee      	b.n	10000d2a <alarm_pool_irq_handler+0x292>
10000d4c:	2800      	cmp	r0, #0
10000d4e:	d100      	bne.n	10000d52 <alarm_pool_irq_handler+0x2ba>
10000d50:	e73a      	b.n	10000bc8 <alarm_pool_irq_handler+0x130>
10000d52:	b003      	add	sp, #12
10000d54:	bcf0      	pop	{r4, r5, r6, r7}
10000d56:	46bb      	mov	fp, r7
10000d58:	46b2      	mov	sl, r6
10000d5a:	46a9      	mov	r9, r5
10000d5c:	46a0      	mov	r8, r4
10000d5e:	bdf0      	pop	{r4, r5, r6, r7, pc}
10000d60:	200004b8 	.word	0x200004b8
10000d64:	40054000 	.word	0x40054000
10000d68:	4005703c 	.word	0x4005703c
10000d6c:	10004194 	.word	0x10004194
10000d70:	10004244 	.word	0x10004244
10000d74:	100041c0 	.word	0x100041c0
10000d78:	10000a99 	.word	0x10000a99

10000d7c <alarm_pool_post_alloc_init>:
10000d7c:	b5f8      	push	{r3, r4, r5, r6, r7, lr}
10000d7e:	46ce      	mov	lr, r9
10000d80:	4647      	mov	r7, r8
10000d82:	b580      	push	{r7, lr}
10000d84:	0006      	movs	r6, r0
10000d86:	4688      	mov	r8, r1
10000d88:	4691      	mov	r9, r2
10000d8a:	001f      	movs	r7, r3
10000d8c:	60c1      	str	r1, [r0, #12]
10000d8e:	f7ff fbeb 	bl	10000568 <next_striped_spin_lock_num>
10000d92:	4b1b      	ldr	r3, [pc, #108]	; (10000e00 <alarm_pool_post_alloc_init+0x84>)
10000d94:	469c      	mov	ip, r3
10000d96:	4460      	add	r0, ip
10000d98:	0080      	lsls	r0, r0, #2
10000d9a:	6130      	str	r0, [r6, #16]
10000d9c:	464b      	mov	r3, r9
10000d9e:	7033      	strb	r3, [r6, #0]
10000da0:	b2bb      	uxth	r3, r7
10000da2:	8173      	strh	r3, [r6, #10]
10000da4:	22d0      	movs	r2, #208	; 0xd0
10000da6:	0612      	lsls	r2, r2, #24
10000da8:	7812      	ldrb	r2, [r2, #0]
10000daa:	7072      	strb	r2, [r6, #1]
10000dac:	2201      	movs	r2, #1
10000dae:	4252      	negs	r2, r2
10000db0:	8132      	strh	r2, [r6, #8]
10000db2:	80b2      	strh	r2, [r6, #4]
10000db4:	189b      	adds	r3, r3, r2
10000db6:	8073      	strh	r3, [r6, #2]
10000db8:	2400      	movs	r4, #0
10000dba:	e006      	b.n	10000dca <alarm_pool_post_alloc_init+0x4e>
10000dbc:	1e63      	subs	r3, r4, #1
10000dbe:	0065      	lsls	r5, r4, #1
10000dc0:	192d      	adds	r5, r5, r4
10000dc2:	00ed      	lsls	r5, r5, #3
10000dc4:	6972      	ldr	r2, [r6, #20]
10000dc6:	5353      	strh	r3, [r2, r5]
10000dc8:	3401      	adds	r4, #1
10000dca:	42bc      	cmp	r4, r7
10000dcc:	d3f6      	bcc.n	10000dbc <alarm_pool_post_alloc_init+0x40>
10000dce:	464b      	mov	r3, r9
10000dd0:	009a      	lsls	r2, r3, #2
10000dd2:	4b0c      	ldr	r3, [pc, #48]	; (10000e04 <alarm_pool_post_alloc_init+0x88>)
10000dd4:	50d6      	str	r6, [r2, r3]
10000dd6:	2401      	movs	r4, #1
10000dd8:	464b      	mov	r3, r9
10000dda:	409c      	lsls	r4, r3
10000ddc:	4643      	mov	r3, r8
10000dde:	621c      	str	r4, [r3, #32]
10000de0:	4909      	ldr	r1, [pc, #36]	; (10000e08 <alarm_pool_post_alloc_init+0x8c>)
10000de2:	4648      	mov	r0, r9
10000de4:	f7ff fc76 	bl	100006d4 <irq_set_exclusive_handler>
10000de8:	2101      	movs	r1, #1
10000dea:	4648      	mov	r0, r9
10000dec:	f7ff fc60 	bl	100006b0 <irq_set_enabled>
10000df0:	4906      	ldr	r1, [pc, #24]	; (10000e0c <alarm_pool_post_alloc_init+0x90>)
10000df2:	4441      	add	r1, r8
10000df4:	600c      	str	r4, [r1, #0]
10000df6:	bcc0      	pop	{r6, r7}
10000df8:	46b9      	mov	r9, r7
10000dfa:	46b0      	mov	r8, r6
10000dfc:	bdf8      	pop	{r3, r4, r5, r6, r7, pc}
10000dfe:	46c0      	nop			; (mov r8, r8)
10000e00:	34000040 	.word	0x34000040
10000e04:	200004b8 	.word	0x200004b8
10000e08:	10000a99 	.word	0x10000a99
10000e0c:	00002038 	.word	0x00002038

10000e10 <alarm_pool_get_default>:
10000e10:	b510      	push	{r4, lr}
10000e12:	4b06      	ldr	r3, [pc, #24]	; (10000e2c <alarm_pool_get_default+0x1c>)
10000e14:	691b      	ldr	r3, [r3, #16]
10000e16:	2b00      	cmp	r3, #0
10000e18:	d001      	beq.n	10000e1e <alarm_pool_get_default+0xe>
10000e1a:	4804      	ldr	r0, [pc, #16]	; (10000e2c <alarm_pool_get_default+0x1c>)
10000e1c:	bd10      	pop	{r4, pc}
10000e1e:	4b04      	ldr	r3, [pc, #16]	; (10000e30 <alarm_pool_get_default+0x20>)
10000e20:	4a04      	ldr	r2, [pc, #16]	; (10000e34 <alarm_pool_get_default+0x24>)
10000e22:	2165      	movs	r1, #101	; 0x65
10000e24:	4804      	ldr	r0, [pc, #16]	; (10000e38 <alarm_pool_get_default+0x28>)
10000e26:	f002 fcdb 	bl	100037e0 <__assert_func>
10000e2a:	46c0      	nop			; (mov r8, r8)
10000e2c:	20000284 	.word	0x20000284
10000e30:	10004208 	.word	0x10004208
10000e34:	1000422c 	.word	0x1000422c
10000e38:	100041c0 	.word	0x100041c0

10000e3c <alarm_pool_add_alarm_at_force_in_context>:
10000e3c:	b5f0      	push	{r4, r5, r6, r7, lr}
10000e3e:	46c6      	mov	lr, r8
10000e40:	b500      	push	{lr}
10000e42:	0004      	movs	r4, r0
10000e44:	6900      	ldr	r0, [r0, #16]
10000e46:	f3ef 8c10 	mrs	ip, PRIMASK
10000e4a:	b672      	cpsid	i
10000e4c:	6801      	ldr	r1, [r0, #0]
10000e4e:	2900      	cmp	r1, #0
10000e50:	d0fc      	beq.n	10000e4c <alarm_pool_add_alarm_at_force_in_context+0x10>
10000e52:	f3bf 8f5f 	dmb	sy
10000e56:	2102      	movs	r1, #2
10000e58:	5e66      	ldrsh	r6, [r4, r1]
10000e5a:	0075      	lsls	r5, r6, #1
10000e5c:	19ad      	adds	r5, r5, r6
10000e5e:	00ed      	lsls	r5, r5, #3
10000e60:	6961      	ldr	r1, [r4, #20]
10000e62:	4688      	mov	r8, r1
10000e64:	4445      	add	r5, r8
10000e66:	2e00      	cmp	r6, #0
10000e68:	db02      	blt.n	10000e70 <alarm_pool_add_alarm_at_force_in_context+0x34>
10000e6a:	2000      	movs	r0, #0
10000e6c:	5e29      	ldrsh	r1, [r5, r0]
10000e6e:	8061      	strh	r1, [r4, #2]
10000e70:	6921      	ldr	r1, [r4, #16]
10000e72:	f3bf 8f5f 	dmb	sy
10000e76:	2000      	movs	r0, #0
10000e78:	6008      	str	r0, [r1, #0]
10000e7a:	f38c 8810 	msr	PRIMASK, ip
10000e7e:	2e00      	cmp	r6, #0
10000e80:	db2e      	blt.n	10000ee0 <alarm_pool_add_alarm_at_force_in_context+0xa4>
10000e82:	9906      	ldr	r1, [sp, #24]
10000e84:	6129      	str	r1, [r5, #16]
10000e86:	9907      	ldr	r1, [sp, #28]
10000e88:	6169      	str	r1, [r5, #20]
10000e8a:	60aa      	str	r2, [r5, #8]
10000e8c:	60eb      	str	r3, [r5, #12]
10000e8e:	886b      	ldrh	r3, [r5, #2]
10000e90:	3301      	adds	r3, #1
10000e92:	045b      	lsls	r3, r3, #17
10000e94:	0c59      	lsrs	r1, r3, #17
10000e96:	2b00      	cmp	r3, #0
10000e98:	d100      	bne.n	10000e9c <alarm_pool_add_alarm_at_force_in_context+0x60>
10000e9a:	2101      	movs	r1, #1
10000e9c:	8069      	strh	r1, [r5, #2]
10000e9e:	0030      	movs	r0, r6
10000ea0:	f7ff fdde 	bl	10000a60 <make_alarm_id>
10000ea4:	6922      	ldr	r2, [r4, #16]
10000ea6:	f3ef 8110 	mrs	r1, PRIMASK
10000eaa:	b672      	cpsid	i
10000eac:	6813      	ldr	r3, [r2, #0]
10000eae:	2b00      	cmp	r3, #0
10000eb0:	d0fc      	beq.n	10000eac <alarm_pool_add_alarm_at_force_in_context+0x70>
10000eb2:	f3bf 8f5f 	dmb	sy
10000eb6:	88a3      	ldrh	r3, [r4, #4]
10000eb8:	802b      	strh	r3, [r5, #0]
10000eba:	80a6      	strh	r6, [r4, #4]
10000ebc:	6923      	ldr	r3, [r4, #16]
10000ebe:	f3bf 8f5f 	dmb	sy
10000ec2:	2200      	movs	r2, #0
10000ec4:	601a      	str	r2, [r3, #0]
10000ec6:	f381 8810 	msr	PRIMASK, r1
10000eca:	68e3      	ldr	r3, [r4, #12]
10000ecc:	7821      	ldrb	r1, [r4, #0]
10000ece:	3201      	adds	r2, #1
10000ed0:	408a      	lsls	r2, r1
10000ed2:	4905      	ldr	r1, [pc, #20]	; (10000ee8 <alarm_pool_add_alarm_at_force_in_context+0xac>)
10000ed4:	468c      	mov	ip, r1
10000ed6:	4463      	add	r3, ip
10000ed8:	601a      	str	r2, [r3, #0]
10000eda:	bc80      	pop	{r7}
10000edc:	46b8      	mov	r8, r7
10000ede:	bdf0      	pop	{r4, r5, r6, r7, pc}
10000ee0:	2001      	movs	r0, #1
10000ee2:	4240      	negs	r0, r0
10000ee4:	e7f9      	b.n	10000eda <alarm_pool_add_alarm_at_force_in_context+0x9e>
10000ee6:	46c0      	nop			; (mov r8, r8)
10000ee8:	0000203c 	.word	0x0000203c

10000eec <alarm_pool_add_alarm_at>:
10000eec:	b570      	push	{r4, r5, r6, lr}
10000eee:	b082      	sub	sp, #8
10000ef0:	0006      	movs	r6, r0
10000ef2:	0014      	movs	r4, r2
10000ef4:	001d      	movs	r5, r3
10000ef6:	ab08      	add	r3, sp, #32
10000ef8:	781b      	ldrb	r3, [r3, #0]
10000efa:	2b00      	cmp	r3, #0
10000efc:	d107      	bne.n	10000f0e <alarm_pool_add_alarm_at+0x22>
10000efe:	f000 f917 	bl	10001130 <time_us_64>
10000f02:	0022      	movs	r2, r4
10000f04:	002b      	movs	r3, r5
10000f06:	1a12      	subs	r2, r2, r0
10000f08:	418b      	sbcs	r3, r1
10000f0a:	2b00      	cmp	r3, #0
10000f0c:	db0a      	blt.n	10000f24 <alarm_pool_add_alarm_at+0x38>
10000f0e:	9b07      	ldr	r3, [sp, #28]
10000f10:	9301      	str	r3, [sp, #4]
10000f12:	9b06      	ldr	r3, [sp, #24]
10000f14:	9300      	str	r3, [sp, #0]
10000f16:	0022      	movs	r2, r4
10000f18:	002b      	movs	r3, r5
10000f1a:	0030      	movs	r0, r6
10000f1c:	f7ff ff8e 	bl	10000e3c <alarm_pool_add_alarm_at_force_in_context>
10000f20:	b002      	add	sp, #8
10000f22:	bd70      	pop	{r4, r5, r6, pc}
10000f24:	2000      	movs	r0, #0
10000f26:	e7fb      	b.n	10000f20 <alarm_pool_add_alarm_at+0x34>

10000f28 <alarm_pool_cancel_alarm>:
10000f28:	b510      	push	{r4, lr}
10000f2a:	0003      	movs	r3, r0
10000f2c:	1408      	asrs	r0, r1, #16
10000f2e:	895a      	ldrh	r2, [r3, #10]
10000f30:	4290      	cmp	r0, r2
10000f32:	da2f      	bge.n	10000f94 <alarm_pool_cancel_alarm+0x6c>
10000f34:	0042      	lsls	r2, r0, #1
10000f36:	1812      	adds	r2, r2, r0
10000f38:	00d2      	lsls	r2, r2, #3
10000f3a:	6958      	ldr	r0, [r3, #20]
10000f3c:	4684      	mov	ip, r0
10000f3e:	4462      	add	r2, ip
10000f40:	691c      	ldr	r4, [r3, #16]
10000f42:	f3ef 8c10 	mrs	ip, PRIMASK
10000f46:	b672      	cpsid	i
10000f48:	6820      	ldr	r0, [r4, #0]
10000f4a:	2800      	cmp	r0, #0
10000f4c:	d0fc      	beq.n	10000f48 <alarm_pool_cancel_alarm+0x20>
10000f4e:	f3bf 8f5f 	dmb	sy
10000f52:	8850      	ldrh	r0, [r2, #2]
10000f54:	b280      	uxth	r0, r0
10000f56:	0409      	lsls	r1, r1, #16
10000f58:	0c09      	lsrs	r1, r1, #16
10000f5a:	4288      	cmp	r0, r1
10000f5c:	d012      	beq.n	10000f84 <alarm_pool_cancel_alarm+0x5c>
10000f5e:	2000      	movs	r0, #0
10000f60:	691a      	ldr	r2, [r3, #16]
10000f62:	f3bf 8f5f 	dmb	sy
10000f66:	2100      	movs	r1, #0
10000f68:	6011      	str	r1, [r2, #0]
10000f6a:	f38c 8810 	msr	PRIMASK, ip
10000f6e:	2800      	cmp	r0, #0
10000f70:	d011      	beq.n	10000f96 <alarm_pool_cancel_alarm+0x6e>
10000f72:	68da      	ldr	r2, [r3, #12]
10000f74:	781b      	ldrb	r3, [r3, #0]
10000f76:	3101      	adds	r1, #1
10000f78:	4099      	lsls	r1, r3
10000f7a:	4b07      	ldr	r3, [pc, #28]	; (10000f98 <alarm_pool_cancel_alarm+0x70>)
10000f7c:	469c      	mov	ip, r3
10000f7e:	4462      	add	r2, ip
10000f80:	6011      	str	r1, [r2, #0]
10000f82:	e008      	b.n	10000f96 <alarm_pool_cancel_alarm+0x6e>
10000f84:	4905      	ldr	r1, [pc, #20]	; (10000f9c <alarm_pool_cancel_alarm+0x74>)
10000f86:	4308      	orrs	r0, r1
10000f88:	b280      	uxth	r0, r0
10000f8a:	8050      	strh	r0, [r2, #2]
10000f8c:	2201      	movs	r2, #1
10000f8e:	719a      	strb	r2, [r3, #6]
10000f90:	2001      	movs	r0, #1
10000f92:	e7e5      	b.n	10000f60 <alarm_pool_cancel_alarm+0x38>
10000f94:	2000      	movs	r0, #0
10000f96:	bd10      	pop	{r4, pc}
10000f98:	0000203c 	.word	0x0000203c
10000f9c:	ffff8000 	.word	0xffff8000

10000fa0 <best_effort_wfe_or_timeout>:
10000fa0:	b570      	push	{r4, r5, r6, lr}
10000fa2:	b084      	sub	sp, #16
10000fa4:	0005      	movs	r5, r0
10000fa6:	000c      	movs	r4, r1
10000fa8:	f3ef 8305 	mrs	r3, IPSR
10000fac:	2b00      	cmp	r3, #0
10000fae:	d012      	beq.n	10000fd6 <best_effort_wfe_or_timeout+0x36>
10000fb0:	4b2f      	ldr	r3, [pc, #188]	; (10001070 <best_effort_wfe_or_timeout+0xd0>)
10000fb2:	6a5b      	ldr	r3, [r3, #36]	; 0x24
10000fb4:	4299      	cmp	r1, r3
10000fb6:	d809      	bhi.n	10000fcc <best_effort_wfe_or_timeout+0x2c>
10000fb8:	4a2d      	ldr	r2, [pc, #180]	; (10001070 <best_effort_wfe_or_timeout+0xd0>)
10000fba:	6a92      	ldr	r2, [r2, #40]	; 0x28
10000fbc:	4282      	cmp	r2, r0
10000fbe:	d208      	bcs.n	10000fd2 <best_effort_wfe_or_timeout+0x32>
10000fc0:	4299      	cmp	r1, r3
10000fc2:	d001      	beq.n	10000fc8 <best_effort_wfe_or_timeout+0x28>
10000fc4:	2001      	movs	r0, #1
10000fc6:	e002      	b.n	10000fce <best_effort_wfe_or_timeout+0x2e>
10000fc8:	2000      	movs	r0, #0
10000fca:	e000      	b.n	10000fce <best_effort_wfe_or_timeout+0x2e>
10000fcc:	2000      	movs	r0, #0
10000fce:	b004      	add	sp, #16
10000fd0:	bd70      	pop	{r4, r5, r6, pc}
10000fd2:	2001      	movs	r0, #1
10000fd4:	e7fb      	b.n	10000fce <best_effort_wfe_or_timeout+0x2e>
10000fd6:	f7ff ff1b 	bl	10000e10 <alarm_pool_get_default>
10000fda:	2300      	movs	r3, #0
10000fdc:	9302      	str	r3, [sp, #8]
10000fde:	9301      	str	r3, [sp, #4]
10000fe0:	4b24      	ldr	r3, [pc, #144]	; (10001074 <best_effort_wfe_or_timeout+0xd4>)
10000fe2:	9300      	str	r3, [sp, #0]
10000fe4:	002a      	movs	r2, r5
10000fe6:	0023      	movs	r3, r4
10000fe8:	f7ff ff80 	bl	10000eec <alarm_pool_add_alarm_at>
10000fec:	1e06      	subs	r6, r0, #0
10000fee:	dd0d      	ble.n	1000100c <best_effort_wfe_or_timeout+0x6c>
10000ff0:	bf40      	sev
10000ff2:	bf20      	wfe
10000ff4:	4b1e      	ldr	r3, [pc, #120]	; (10001070 <best_effort_wfe_or_timeout+0xd0>)
10000ff6:	6a5b      	ldr	r3, [r3, #36]	; 0x24
10000ff8:	429c      	cmp	r4, r3
10000ffa:	d81b      	bhi.n	10001034 <best_effort_wfe_or_timeout+0x94>
10000ffc:	4a1c      	ldr	r2, [pc, #112]	; (10001070 <best_effort_wfe_or_timeout+0xd0>)
10000ffe:	6a92      	ldr	r2, [r2, #40]	; 0x28
10001000:	42aa      	cmp	r2, r5
10001002:	d22c      	bcs.n	1000105e <best_effort_wfe_or_timeout+0xbe>
10001004:	429c      	cmp	r4, r3
10001006:	d013      	beq.n	10001030 <best_effort_wfe_or_timeout+0x90>
10001008:	2301      	movs	r3, #1
1000100a:	e014      	b.n	10001036 <best_effort_wfe_or_timeout+0x96>
1000100c:	4b18      	ldr	r3, [pc, #96]	; (10001070 <best_effort_wfe_or_timeout+0xd0>)
1000100e:	6a5b      	ldr	r3, [r3, #36]	; 0x24
10001010:	429c      	cmp	r4, r3
10001012:	d809      	bhi.n	10001028 <best_effort_wfe_or_timeout+0x88>
10001014:	4a16      	ldr	r2, [pc, #88]	; (10001070 <best_effort_wfe_or_timeout+0xd0>)
10001016:	6a92      	ldr	r2, [r2, #40]	; 0x28
10001018:	42aa      	cmp	r2, r5
1000101a:	d207      	bcs.n	1000102c <best_effort_wfe_or_timeout+0x8c>
1000101c:	429c      	cmp	r4, r3
1000101e:	d001      	beq.n	10001024 <best_effort_wfe_or_timeout+0x84>
10001020:	2001      	movs	r0, #1
10001022:	e7d4      	b.n	10000fce <best_effort_wfe_or_timeout+0x2e>
10001024:	2000      	movs	r0, #0
10001026:	e7d2      	b.n	10000fce <best_effort_wfe_or_timeout+0x2e>
10001028:	2000      	movs	r0, #0
1000102a:	e7d0      	b.n	10000fce <best_effort_wfe_or_timeout+0x2e>
1000102c:	2001      	movs	r0, #1
1000102e:	e7ce      	b.n	10000fce <best_effort_wfe_or_timeout+0x2e>
10001030:	2300      	movs	r3, #0
10001032:	e000      	b.n	10001036 <best_effort_wfe_or_timeout+0x96>
10001034:	2300      	movs	r3, #0
10001036:	2b00      	cmp	r3, #0
10001038:	d100      	bne.n	1000103c <best_effort_wfe_or_timeout+0x9c>
1000103a:	bf20      	wfe
1000103c:	f7ff fee8 	bl	10000e10 <alarm_pool_get_default>
10001040:	0031      	movs	r1, r6
10001042:	f7ff ff71 	bl	10000f28 <alarm_pool_cancel_alarm>
10001046:	4b0a      	ldr	r3, [pc, #40]	; (10001070 <best_effort_wfe_or_timeout+0xd0>)
10001048:	6a5b      	ldr	r3, [r3, #36]	; 0x24
1000104a:	429c      	cmp	r4, r3
1000104c:	d80b      	bhi.n	10001066 <best_effort_wfe_or_timeout+0xc6>
1000104e:	4a08      	ldr	r2, [pc, #32]	; (10001070 <best_effort_wfe_or_timeout+0xd0>)
10001050:	6a92      	ldr	r2, [r2, #40]	; 0x28
10001052:	42aa      	cmp	r2, r5
10001054:	d209      	bcs.n	1000106a <best_effort_wfe_or_timeout+0xca>
10001056:	429c      	cmp	r4, r3
10001058:	d003      	beq.n	10001062 <best_effort_wfe_or_timeout+0xc2>
1000105a:	2001      	movs	r0, #1
1000105c:	e7b7      	b.n	10000fce <best_effort_wfe_or_timeout+0x2e>
1000105e:	2301      	movs	r3, #1
10001060:	e7e9      	b.n	10001036 <best_effort_wfe_or_timeout+0x96>
10001062:	2000      	movs	r0, #0
10001064:	e7b3      	b.n	10000fce <best_effort_wfe_or_timeout+0x2e>
10001066:	2000      	movs	r0, #0
10001068:	e7b1      	b.n	10000fce <best_effort_wfe_or_timeout+0x2e>
1000106a:	2001      	movs	r0, #1
1000106c:	e7af      	b.n	10000fce <best_effort_wfe_or_timeout+0x2e>
1000106e:	46c0      	nop			; (mov r8, r8)
10001070:	40054000 	.word	0x40054000
10001074:	10000a69 	.word	0x10000a69

10001078 <alarm_pool_get_default_timer>:
10001078:	4800      	ldr	r0, [pc, #0]	; (1000107c <alarm_pool_get_default_timer+0x4>)
1000107a:	4770      	bx	lr
1000107c:	40054000 	.word	0x40054000

10001080 <runtime_init_default_alarm_pool>:
10001080:	b510      	push	{r4, lr}
10001082:	4b0b      	ldr	r3, [pc, #44]	; (100010b0 <runtime_init_default_alarm_pool+0x30>)
10001084:	691b      	ldr	r3, [r3, #16]
10001086:	2b00      	cmp	r3, #0
10001088:	d004      	beq.n	10001094 <runtime_init_default_alarm_pool+0x14>
1000108a:	210a      	movs	r1, #10
1000108c:	4809      	ldr	r0, [pc, #36]	; (100010b4 <runtime_init_default_alarm_pool+0x34>)
1000108e:	f7ff fc9d 	bl	100009cc <lock_init>
10001092:	bd10      	pop	{r4, pc}
10001094:	f7ff fff0 	bl	10001078 <alarm_pool_get_default_timer>
10001098:	0004      	movs	r4, r0
1000109a:	2103      	movs	r1, #3
1000109c:	f000 f80c 	bl	100010b8 <timer_hardware_alarm_claim>
100010a0:	2310      	movs	r3, #16
100010a2:	2203      	movs	r2, #3
100010a4:	0021      	movs	r1, r4
100010a6:	4802      	ldr	r0, [pc, #8]	; (100010b0 <runtime_init_default_alarm_pool+0x30>)
100010a8:	f7ff fe68 	bl	10000d7c <alarm_pool_post_alloc_init>
100010ac:	e7ed      	b.n	1000108a <runtime_init_default_alarm_pool+0xa>
100010ae:	46c0      	nop			; (mov r8, r8)
100010b0:	20000284 	.word	0x20000284
100010b4:	200006cc 	.word	0x200006cc

100010b8 <timer_hardware_alarm_claim>:
100010b8:	b510      	push	{r4, lr}
100010ba:	4a02      	ldr	r2, [pc, #8]	; (100010c4 <timer_hardware_alarm_claim+0xc>)
100010bc:	4802      	ldr	r0, [pc, #8]	; (100010c8 <timer_hardware_alarm_claim+0x10>)
100010be:	f7ff fa39 	bl	10000534 <hw_claim_or_assert>
100010c2:	bd10      	pop	{r4, pc}
100010c4:	1000425c 	.word	0x1000425c
100010c8:	20000484 	.word	0x20000484

100010cc <timer_time_us_64>:
100010cc:	0002      	movs	r2, r0
100010ce:	6a43      	ldr	r3, [r0, #36]	; 0x24
100010d0:	6a90      	ldr	r0, [r2, #40]	; 0x28
100010d2:	0019      	movs	r1, r3
100010d4:	6a53      	ldr	r3, [r2, #36]	; 0x24
100010d6:	4299      	cmp	r1, r3
100010d8:	d1fa      	bne.n	100010d0 <timer_time_us_64+0x4>
100010da:	4770      	bx	lr

100010dc <timer_busy_wait_until>:
100010dc:	6a41      	ldr	r1, [r0, #36]	; 0x24
100010de:	e000      	b.n	100010e2 <timer_busy_wait_until+0x6>
100010e0:	6a41      	ldr	r1, [r0, #36]	; 0x24
100010e2:	4299      	cmp	r1, r3
100010e4:	d3fc      	bcc.n	100010e0 <timer_busy_wait_until+0x4>
100010e6:	e000      	b.n	100010ea <timer_busy_wait_until+0xe>
100010e8:	6a41      	ldr	r1, [r0, #36]	; 0x24
100010ea:	4299      	cmp	r1, r3
100010ec:	d102      	bne.n	100010f4 <timer_busy_wait_until+0x18>
100010ee:	6a81      	ldr	r1, [r0, #40]	; 0x28
100010f0:	4291      	cmp	r1, r2
100010f2:	d3f9      	bcc.n	100010e8 <timer_busy_wait_until+0xc>
100010f4:	4770      	bx	lr

100010f6 <timer_busy_wait_us>:
100010f6:	b5f0      	push	{r4, r5, r6, r7, lr}
100010f8:	46c6      	mov	lr, r8
100010fa:	b500      	push	{lr}
100010fc:	4680      	mov	r8, r0
100010fe:	0014      	movs	r4, r2
10001100:	001d      	movs	r5, r3
10001102:	f7ff ffe3 	bl	100010cc <timer_time_us_64>
10001106:	0006      	movs	r6, r0
10001108:	000f      	movs	r7, r1
1000110a:	0022      	movs	r2, r4
1000110c:	002b      	movs	r3, r5
1000110e:	1992      	adds	r2, r2, r6
10001110:	417b      	adcs	r3, r7
10001112:	4299      	cmp	r1, r3
10001114:	d802      	bhi.n	1000111c <timer_busy_wait_us+0x26>
10001116:	d104      	bne.n	10001122 <timer_busy_wait_us+0x2c>
10001118:	4290      	cmp	r0, r2
1000111a:	d902      	bls.n	10001122 <timer_busy_wait_us+0x2c>
1000111c:	2201      	movs	r2, #1
1000111e:	4252      	negs	r2, r2
10001120:	17d3      	asrs	r3, r2, #31
10001122:	4640      	mov	r0, r8
10001124:	f7ff ffda 	bl	100010dc <timer_busy_wait_until>
10001128:	bc80      	pop	{r7}
1000112a:	46b8      	mov	r8, r7
1000112c:	bdf0      	pop	{r4, r5, r6, r7, pc}
	...

10001130 <time_us_64>:
10001130:	b510      	push	{r4, lr}
10001132:	4802      	ldr	r0, [pc, #8]	; (1000113c <time_us_64+0xc>)
10001134:	f7ff ffca 	bl	100010cc <timer_time_us_64>
10001138:	bd10      	pop	{r4, pc}
1000113a:	46c0      	nop			; (mov r8, r8)
1000113c:	40054000 	.word	0x40054000

10001140 <busy_wait_us>:
10001140:	b510      	push	{r4, lr}
10001142:	0002      	movs	r2, r0
10001144:	000b      	movs	r3, r1
10001146:	4802      	ldr	r0, [pc, #8]	; (10001150 <busy_wait_us+0x10>)
10001148:	f7ff ffd5 	bl	100010f6 <timer_busy_wait_us>
1000114c:	bd10      	pop	{r4, pc}
1000114e:	46c0      	nop			; (mov r8, r8)
10001150:	40054000 	.word	0x40054000

10001154 <uart_disable_before_lcr_write>:
10001154:	b570      	push	{r4, r5, r6, lr}
10001156:	6b04      	ldr	r4, [r0, #48]	; 0x30
10001158:	07e3      	lsls	r3, r4, #31
1000115a:	d401      	bmi.n	10001160 <uart_disable_before_lcr_write+0xc>
1000115c:	0020      	movs	r0, r4
1000115e:	bd70      	pop	{r4, r5, r6, pc}
10001160:	4b0b      	ldr	r3, [pc, #44]	; (10001190 <uart_disable_before_lcr_write+0x3c>)
10001162:	18c3      	adds	r3, r0, r3
10001164:	4a0b      	ldr	r2, [pc, #44]	; (10001194 <uart_disable_before_lcr_write+0x40>)
10001166:	601a      	str	r2, [r3, #0]
10001168:	6a45      	ldr	r5, [r0, #36]	; 0x24
1000116a:	6a82      	ldr	r2, [r0, #40]	; 0x28
1000116c:	01ad      	lsls	r5, r5, #6
1000116e:	18ad      	adds	r5, r5, r2
10001170:	02ad      	lsls	r5, r5, #10
10001172:	2006      	movs	r0, #6
10001174:	f000 f926 	bl	100013c4 <clock_get_hz>
10001178:	4907      	ldr	r1, [pc, #28]	; (10001198 <uart_disable_before_lcr_write+0x44>)
1000117a:	f000 fb11 	bl	100017a0 <__wrap___aeabi_uidiv>
1000117e:	0001      	movs	r1, r0
10001180:	0028      	movs	r0, r5
10001182:	f000 fb0d 	bl	100017a0 <__wrap___aeabi_uidiv>
10001186:	2100      	movs	r1, #0
10001188:	f7ff ffda 	bl	10001140 <busy_wait_us>
1000118c:	e7e6      	b.n	1000115c <uart_disable_before_lcr_write+0x8>
1000118e:	46c0      	nop			; (mov r8, r8)
10001190:	00003030 	.word	0x00003030
10001194:	00000301 	.word	0x00000301
10001198:	00000e4e 	.word	0x00000e4e

1000119c <uart_write_lcr_bits_masked>:
1000119c:	b570      	push	{r4, r5, r6, lr}
1000119e:	0004      	movs	r4, r0
100011a0:	000e      	movs	r6, r1
100011a2:	0015      	movs	r5, r2
100011a4:	f7ff ffd6 	bl	10001154 <uart_disable_before_lcr_write>
100011a8:	6ae1      	ldr	r1, [r4, #44]	; 0x2c
100011aa:	404e      	eors	r6, r1
100011ac:	4035      	ands	r5, r6
100011ae:	4b02      	ldr	r3, [pc, #8]	; (100011b8 <uart_write_lcr_bits_masked+0x1c>)
100011b0:	18e3      	adds	r3, r4, r3
100011b2:	601d      	str	r5, [r3, #0]
100011b4:	6320      	str	r0, [r4, #48]	; 0x30
100011b6:	bd70      	pop	{r4, r5, r6, pc}
100011b8:	0000102c 	.word	0x0000102c

100011bc <uart_set_baudrate>:
100011bc:	b570      	push	{r4, r5, r6, lr}
100011be:	0005      	movs	r5, r0
100011c0:	000c      	movs	r4, r1
100011c2:	2006      	movs	r0, #6
100011c4:	f000 f8fe 	bl	100013c4 <clock_get_hz>
100011c8:	00c0      	lsls	r0, r0, #3
100011ca:	0021      	movs	r1, r4
100011cc:	f000 fae8 	bl	100017a0 <__wrap___aeabi_uidiv>
100011d0:	3001      	adds	r0, #1
100011d2:	09c6      	lsrs	r6, r0, #7
100011d4:	d007      	beq.n	100011e6 <uart_set_baudrate+0x2a>
100011d6:	4b0e      	ldr	r3, [pc, #56]	; (10001210 <uart_set_baudrate+0x54>)
100011d8:	429e      	cmp	r6, r3
100011da:	d815      	bhi.n	10001208 <uart_set_baudrate+0x4c>
100011dc:	0840      	lsrs	r0, r0, #1
100011de:	0034      	movs	r4, r6
100011e0:	263f      	movs	r6, #63	; 0x3f
100011e2:	4006      	ands	r6, r0
100011e4:	e000      	b.n	100011e8 <uart_set_baudrate+0x2c>
100011e6:	2401      	movs	r4, #1
100011e8:	626c      	str	r4, [r5, #36]	; 0x24
100011ea:	62ae      	str	r6, [r5, #40]	; 0x28
100011ec:	2200      	movs	r2, #0
100011ee:	2100      	movs	r1, #0
100011f0:	0028      	movs	r0, r5
100011f2:	f7ff ffd3 	bl	1000119c <uart_write_lcr_bits_masked>
100011f6:	2006      	movs	r0, #6
100011f8:	f000 f8e4 	bl	100013c4 <clock_get_hz>
100011fc:	0080      	lsls	r0, r0, #2
100011fe:	01a1      	lsls	r1, r4, #6
10001200:	1989      	adds	r1, r1, r6
10001202:	f000 facd 	bl	100017a0 <__wrap___aeabi_uidiv>
10001206:	bd70      	pop	{r4, r5, r6, pc}
10001208:	2600      	movs	r6, #0
1000120a:	4c02      	ldr	r4, [pc, #8]	; (10001214 <uart_set_baudrate+0x58>)
1000120c:	e7ec      	b.n	100011e8 <uart_set_baudrate+0x2c>
1000120e:	46c0      	nop			; (mov r8, r8)
10001210:	0000fffe 	.word	0x0000fffe
10001214:	0000ffff 	.word	0x0000ffff

10001218 <uart_set_translate_crlf>:
10001218:	2900      	cmp	r1, #0
1000121a:	d009      	beq.n	10001230 <uart_set_translate_crlf+0x18>
1000121c:	220a      	movs	r2, #10
1000121e:	4b06      	ldr	r3, [pc, #24]	; (10001238 <uart_set_translate_crlf+0x20>)
10001220:	469c      	mov	ip, r3
10001222:	4460      	add	r0, ip
10001224:	4243      	negs	r3, r0
10001226:	4158      	adcs	r0, r3
10001228:	0040      	lsls	r0, r0, #1
1000122a:	4b04      	ldr	r3, [pc, #16]	; (1000123c <uart_set_translate_crlf+0x24>)
1000122c:	52c2      	strh	r2, [r0, r3]
1000122e:	4770      	bx	lr
10001230:	2280      	movs	r2, #128	; 0x80
10001232:	0052      	lsls	r2, r2, #1
10001234:	e7f3      	b.n	1000121e <uart_set_translate_crlf+0x6>
10001236:	46c0      	nop			; (mov r8, r8)
10001238:	bffc8000 	.word	0xbffc8000
1000123c:	200006d0 	.word	0x200006d0

10001240 <uart_init>:
10001240:	b570      	push	{r4, r5, r6, lr}
10001242:	0005      	movs	r5, r0
10001244:	000c      	movs	r4, r1
10001246:	2006      	movs	r0, #6
10001248:	f000 f8bc 	bl	100013c4 <clock_get_hz>
1000124c:	2800      	cmp	r0, #0
1000124e:	d028      	beq.n	100012a2 <uart_init+0x62>
10001250:	4b16      	ldr	r3, [pc, #88]	; (100012ac <uart_init+0x6c>)
10001252:	429d      	cmp	r5, r3
10001254:	d026      	beq.n	100012a4 <uart_init+0x64>
10001256:	2216      	movs	r2, #22
10001258:	2301      	movs	r3, #1
1000125a:	4093      	lsls	r3, r2
1000125c:	4a14      	ldr	r2, [pc, #80]	; (100012b0 <uart_init+0x70>)
1000125e:	6013      	str	r3, [r2, #0]
10001260:	4b12      	ldr	r3, [pc, #72]	; (100012ac <uart_init+0x6c>)
10001262:	429d      	cmp	r5, r3
10001264:	d020      	beq.n	100012a8 <uart_init+0x68>
10001266:	2316      	movs	r3, #22
10001268:	2201      	movs	r2, #1
1000126a:	409a      	lsls	r2, r3
1000126c:	4b11      	ldr	r3, [pc, #68]	; (100012b4 <uart_init+0x74>)
1000126e:	601a      	str	r2, [r3, #0]
10001270:	4b11      	ldr	r3, [pc, #68]	; (100012b8 <uart_init+0x78>)
10001272:	681b      	ldr	r3, [r3, #0]
10001274:	0011      	movs	r1, r2
10001276:	4399      	bics	r1, r3
10001278:	d1fa      	bne.n	10001270 <uart_init+0x30>
1000127a:	2100      	movs	r1, #0
1000127c:	0028      	movs	r0, r5
1000127e:	f7ff ffcb 	bl	10001218 <uart_set_translate_crlf>
10001282:	0021      	movs	r1, r4
10001284:	0028      	movs	r0, r5
10001286:	f7ff ff99 	bl	100011bc <uart_set_baudrate>
1000128a:	6aeb      	ldr	r3, [r5, #44]	; 0x2c
1000128c:	2270      	movs	r2, #112	; 0x70
1000128e:	405a      	eors	r2, r3
10001290:	237e      	movs	r3, #126	; 0x7e
10001292:	4013      	ands	r3, r2
10001294:	4a09      	ldr	r2, [pc, #36]	; (100012bc <uart_init+0x7c>)
10001296:	18aa      	adds	r2, r5, r2
10001298:	6013      	str	r3, [r2, #0]
1000129a:	4b09      	ldr	r3, [pc, #36]	; (100012c0 <uart_init+0x80>)
1000129c:	632b      	str	r3, [r5, #48]	; 0x30
1000129e:	2303      	movs	r3, #3
100012a0:	64ab      	str	r3, [r5, #72]	; 0x48
100012a2:	bd70      	pop	{r4, r5, r6, pc}
100012a4:	2217      	movs	r2, #23
100012a6:	e7d7      	b.n	10001258 <uart_init+0x18>
100012a8:	2317      	movs	r3, #23
100012aa:	e7dd      	b.n	10001268 <uart_init+0x28>
100012ac:	40038000 	.word	0x40038000
100012b0:	4000e000 	.word	0x4000e000
100012b4:	4000f000 	.word	0x4000f000
100012b8:	4000c008 	.word	0x4000c008
100012bc:	0000102c 	.word	0x0000102c
100012c0:	00000301 	.word	0x00000301

100012c4 <clock_configure_internal>:
100012c4:	b5f8      	push	{r3, r4, r5, r6, r7, lr}
100012c6:	46d6      	mov	lr, sl
100012c8:	4647      	mov	r7, r8
100012ca:	b580      	push	{r7, lr}
100012cc:	0006      	movs	r6, r0
100012ce:	000d      	movs	r5, r1
100012d0:	0017      	movs	r7, r2
100012d2:	4698      	mov	r8, r3
100012d4:	0044      	lsls	r4, r0, #1
100012d6:	1824      	adds	r4, r4, r0
100012d8:	00a4      	lsls	r4, r4, #2
100012da:	4b29      	ldr	r3, [pc, #164]	; (10001380 <clock_configure_internal+0xbc>)
100012dc:	469c      	mov	ip, r3
100012de:	4464      	add	r4, ip
100012e0:	6863      	ldr	r3, [r4, #4]
100012e2:	9a08      	ldr	r2, [sp, #32]
100012e4:	4293      	cmp	r3, r2
100012e6:	d200      	bcs.n	100012ea <clock_configure_internal+0x26>
100012e8:	6062      	str	r2, [r4, #4]
100012ea:	1f33      	subs	r3, r6, #4
100012ec:	b2db      	uxtb	r3, r3
100012ee:	469a      	mov	sl, r3
100012f0:	2b01      	cmp	r3, #1
100012f2:	d92e      	bls.n	10001352 <clock_configure_internal+0x8e>
100012f4:	2280      	movs	r2, #128	; 0x80
100012f6:	0112      	lsls	r2, r2, #4
100012f8:	23c0      	movs	r3, #192	; 0xc0
100012fa:	019b      	lsls	r3, r3, #6
100012fc:	18e3      	adds	r3, r4, r3
100012fe:	601a      	str	r2, [r3, #0]
10001300:	00b3      	lsls	r3, r6, #2
10001302:	4a20      	ldr	r2, [pc, #128]	; (10001384 <clock_configure_internal+0xc0>)
10001304:	5899      	ldr	r1, [r3, r2]
10001306:	2900      	cmp	r1, #0
10001308:	d007      	beq.n	1000131a <clock_configure_internal+0x56>
1000130a:	6950      	ldr	r0, [r2, #20]
1000130c:	f000 fa48 	bl	100017a0 <__wrap___aeabi_uidiv>
10001310:	1c43      	adds	r3, r0, #1
10001312:	0058      	lsls	r0, r3, #1
10001314:	18c0      	adds	r0, r0, r3
10001316:	3803      	subs	r0, #3
10001318:	d2fd      	bcs.n	10001316 <clock_configure_internal+0x52>
1000131a:	017f      	lsls	r7, r7, #5
1000131c:	6822      	ldr	r2, [r4, #0]
1000131e:	4057      	eors	r7, r2
10001320:	22e0      	movs	r2, #224	; 0xe0
10001322:	4017      	ands	r7, r2
10001324:	2380      	movs	r3, #128	; 0x80
10001326:	015b      	lsls	r3, r3, #5
10001328:	18e3      	adds	r3, r4, r3
1000132a:	601f      	str	r7, [r3, #0]
1000132c:	4652      	mov	r2, sl
1000132e:	2a01      	cmp	r2, #1
10001330:	d91a      	bls.n	10001368 <clock_configure_internal+0xa4>
10001332:	2380      	movs	r3, #128	; 0x80
10001334:	019b      	lsls	r3, r3, #6
10001336:	18e3      	adds	r3, r4, r3
10001338:	2280      	movs	r2, #128	; 0x80
1000133a:	0112      	lsls	r2, r2, #4
1000133c:	601a      	str	r2, [r3, #0]
1000133e:	9b08      	ldr	r3, [sp, #32]
10001340:	6063      	str	r3, [r4, #4]
10001342:	00b6      	lsls	r6, r6, #2
10001344:	4b0f      	ldr	r3, [pc, #60]	; (10001384 <clock_configure_internal+0xc0>)
10001346:	4642      	mov	r2, r8
10001348:	50f2      	str	r2, [r6, r3]
1000134a:	bcc0      	pop	{r6, r7}
1000134c:	46ba      	mov	sl, r7
1000134e:	46b0      	mov	r8, r6
10001350:	bdf8      	pop	{r3, r4, r5, r6, r7, pc}
10001352:	2d01      	cmp	r5, #1
10001354:	d1ce      	bne.n	100012f4 <clock_configure_internal+0x30>
10001356:	2203      	movs	r2, #3
10001358:	23c0      	movs	r3, #192	; 0xc0
1000135a:	019b      	lsls	r3, r3, #6
1000135c:	18e3      	adds	r3, r4, r3
1000135e:	601a      	str	r2, [r3, #0]
10001360:	68a3      	ldr	r3, [r4, #8]
10001362:	07db      	lsls	r3, r3, #31
10001364:	d5fc      	bpl.n	10001360 <clock_configure_internal+0x9c>
10001366:	e7d8      	b.n	1000131a <clock_configure_internal+0x56>
10001368:	6821      	ldr	r1, [r4, #0]
1000136a:	4069      	eors	r1, r5
1000136c:	2203      	movs	r2, #3
1000136e:	400a      	ands	r2, r1
10001370:	601a      	str	r2, [r3, #0]
10001372:	68a3      	ldr	r3, [r4, #8]
10001374:	2201      	movs	r2, #1
10001376:	40aa      	lsls	r2, r5
10001378:	421a      	tst	r2, r3
1000137a:	d0fa      	beq.n	10001372 <clock_configure_internal+0xae>
1000137c:	e7d9      	b.n	10001332 <clock_configure_internal+0x6e>
1000137e:	46c0      	nop			; (mov r8, r8)
10001380:	40008000 	.word	0x40008000
10001384:	20000488 	.word	0x20000488

10001388 <clock_configure_int_divider>:
10001388:	b5f0      	push	{r4, r5, r6, r7, lr}
1000138a:	b083      	sub	sp, #12
1000138c:	0005      	movs	r5, r0
1000138e:	000e      	movs	r6, r1
10001390:	0017      	movs	r7, r2
10001392:	0018      	movs	r0, r3
10001394:	9908      	ldr	r1, [sp, #32]
10001396:	f000 fa03 	bl	100017a0 <__wrap___aeabi_uidiv>
1000139a:	0003      	movs	r3, r0
1000139c:	9a08      	ldr	r2, [sp, #32]
1000139e:	0214      	lsls	r4, r2, #8
100013a0:	9400      	str	r4, [sp, #0]
100013a2:	003a      	movs	r2, r7
100013a4:	0031      	movs	r1, r6
100013a6:	0028      	movs	r0, r5
100013a8:	f7ff ff8c 	bl	100012c4 <clock_configure_internal>
100013ac:	b003      	add	sp, #12
100013ae:	bdf0      	pop	{r4, r5, r6, r7, pc}

100013b0 <clock_configure_undivided>:
100013b0:	b510      	push	{r4, lr}
100013b2:	b082      	sub	sp, #8
100013b4:	2480      	movs	r4, #128	; 0x80
100013b6:	0064      	lsls	r4, r4, #1
100013b8:	9400      	str	r4, [sp, #0]
100013ba:	f7ff ff83 	bl	100012c4 <clock_configure_internal>
100013be:	b002      	add	sp, #8
100013c0:	bd10      	pop	{r4, pc}
	...

100013c4 <clock_get_hz>:
100013c4:	0080      	lsls	r0, r0, #2
100013c6:	4b01      	ldr	r3, [pc, #4]	; (100013cc <clock_get_hz+0x8>)
100013c8:	58c0      	ldr	r0, [r0, r3]
100013ca:	4770      	bx	lr
100013cc:	20000488 	.word	0x20000488

100013d0 <pll_init>:
100013d0:	b5f0      	push	{r4, r5, r6, r7, lr}
100013d2:	46c6      	mov	lr, r8
100013d4:	b500      	push	{lr}
100013d6:	0004      	movs	r4, r0
100013d8:	000e      	movs	r6, r1
100013da:	0017      	movs	r7, r2
100013dc:	001d      	movs	r5, r3
100013de:	4836      	ldr	r0, [pc, #216]	; (100014b8 <pll_init+0xe8>)
100013e0:	f000 f9de 	bl	100017a0 <__wrap___aeabi_uidiv>
100013e4:	4680      	mov	r8, r0
100013e6:	4b35      	ldr	r3, [pc, #212]	; (100014bc <pll_init+0xec>)
100013e8:	18fa      	adds	r2, r7, r3
100013ea:	4b35      	ldr	r3, [pc, #212]	; (100014c0 <pll_init+0xf0>)
100013ec:	429a      	cmp	r2, r3
100013ee:	d838      	bhi.n	10001462 <pll_init+0x92>
100013f0:	0001      	movs	r1, r0
100013f2:	0038      	movs	r0, r7
100013f4:	f000 f9d4 	bl	100017a0 <__wrap___aeabi_uidiv>
100013f8:	0002      	movs	r2, r0
100013fa:	3a10      	subs	r2, #16
100013fc:	2398      	movs	r3, #152	; 0x98
100013fe:	005b      	lsls	r3, r3, #1
10001400:	429a      	cmp	r2, r3
10001402:	d834      	bhi.n	1000146e <pll_init+0x9e>
10001404:	1e6b      	subs	r3, r5, #1
10001406:	2b06      	cmp	r3, #6
10001408:	d837      	bhi.n	1000147a <pll_init+0xaa>
1000140a:	9b06      	ldr	r3, [sp, #24]
1000140c:	3b01      	subs	r3, #1
1000140e:	2b06      	cmp	r3, #6
10001410:	d833      	bhi.n	1000147a <pll_init+0xaa>
10001412:	093f      	lsrs	r7, r7, #4
10001414:	4547      	cmp	r7, r8
10001416:	d336      	bcc.n	10001486 <pll_init+0xb6>
10001418:	042d      	lsls	r5, r5, #16
1000141a:	9b06      	ldr	r3, [sp, #24]
1000141c:	031a      	lsls	r2, r3, #12
1000141e:	4315      	orrs	r5, r2
10001420:	6823      	ldr	r3, [r4, #0]
10001422:	2b00      	cmp	r3, #0
10001424:	db35      	blt.n	10001492 <pll_init+0xc2>
10001426:	4b27      	ldr	r3, [pc, #156]	; (100014c4 <pll_init+0xf4>)
10001428:	429c      	cmp	r4, r3
1000142a:	d043      	beq.n	100014b4 <pll_init+0xe4>
1000142c:	230c      	movs	r3, #12
1000142e:	2201      	movs	r2, #1
10001430:	409a      	lsls	r2, r3
10001432:	4b25      	ldr	r3, [pc, #148]	; (100014c8 <pll_init+0xf8>)
10001434:	601a      	str	r2, [r3, #0]
10001436:	4b25      	ldr	r3, [pc, #148]	; (100014cc <pll_init+0xfc>)
10001438:	601a      	str	r2, [r3, #0]
1000143a:	4b25      	ldr	r3, [pc, #148]	; (100014d0 <pll_init+0x100>)
1000143c:	681b      	ldr	r3, [r3, #0]
1000143e:	0011      	movs	r1, r2
10001440:	4399      	bics	r1, r3
10001442:	d1fa      	bne.n	1000143a <pll_init+0x6a>
10001444:	6026      	str	r6, [r4, #0]
10001446:	60a0      	str	r0, [r4, #8]
10001448:	4b22      	ldr	r3, [pc, #136]	; (100014d4 <pll_init+0x104>)
1000144a:	18e2      	adds	r2, r4, r3
1000144c:	2321      	movs	r3, #33	; 0x21
1000144e:	6013      	str	r3, [r2, #0]
10001450:	6823      	ldr	r3, [r4, #0]
10001452:	2b00      	cmp	r3, #0
10001454:	dafc      	bge.n	10001450 <pll_init+0x80>
10001456:	60e5      	str	r5, [r4, #12]
10001458:	2308      	movs	r3, #8
1000145a:	6013      	str	r3, [r2, #0]
1000145c:	bc80      	pop	{r7}
1000145e:	46b8      	mov	r8, r7
10001460:	bdf0      	pop	{r4, r5, r6, r7, pc}
10001462:	4b1d      	ldr	r3, [pc, #116]	; (100014d8 <pll_init+0x108>)
10001464:	4a1d      	ldr	r2, [pc, #116]	; (100014dc <pll_init+0x10c>)
10001466:	2111      	movs	r1, #17
10001468:	481d      	ldr	r0, [pc, #116]	; (100014e0 <pll_init+0x110>)
1000146a:	f002 f9b9 	bl	100037e0 <__assert_func>
1000146e:	4b1d      	ldr	r3, [pc, #116]	; (100014e4 <pll_init+0x114>)
10001470:	4a1a      	ldr	r2, [pc, #104]	; (100014dc <pll_init+0x10c>)
10001472:	2119      	movs	r1, #25
10001474:	481a      	ldr	r0, [pc, #104]	; (100014e0 <pll_init+0x110>)
10001476:	f002 f9b3 	bl	100037e0 <__assert_func>
1000147a:	4b1b      	ldr	r3, [pc, #108]	; (100014e8 <pll_init+0x118>)
1000147c:	4a17      	ldr	r2, [pc, #92]	; (100014dc <pll_init+0x10c>)
1000147e:	211c      	movs	r1, #28
10001480:	4817      	ldr	r0, [pc, #92]	; (100014e0 <pll_init+0x110>)
10001482:	f002 f9ad 	bl	100037e0 <__assert_func>
10001486:	4b19      	ldr	r3, [pc, #100]	; (100014ec <pll_init+0x11c>)
10001488:	4a14      	ldr	r2, [pc, #80]	; (100014dc <pll_init+0x10c>)
1000148a:	2123      	movs	r1, #35	; 0x23
1000148c:	4814      	ldr	r0, [pc, #80]	; (100014e0 <pll_init+0x110>)
1000148e:	f002 f9a7 	bl	100037e0 <__assert_func>
10001492:	6822      	ldr	r2, [r4, #0]
10001494:	233f      	movs	r3, #63	; 0x3f
10001496:	4013      	ands	r3, r2
10001498:	42b3      	cmp	r3, r6
1000149a:	d1c4      	bne.n	10001426 <pll_init+0x56>
1000149c:	68a3      	ldr	r3, [r4, #8]
1000149e:	051b      	lsls	r3, r3, #20
100014a0:	0d1b      	lsrs	r3, r3, #20
100014a2:	4283      	cmp	r3, r0
100014a4:	d1bf      	bne.n	10001426 <pll_init+0x56>
100014a6:	68e3      	ldr	r3, [r4, #12]
100014a8:	22ee      	movs	r2, #238	; 0xee
100014aa:	02d2      	lsls	r2, r2, #11
100014ac:	4013      	ands	r3, r2
100014ae:	42ab      	cmp	r3, r5
100014b0:	d1b9      	bne.n	10001426 <pll_init+0x56>
100014b2:	e7d3      	b.n	1000145c <pll_init+0x8c>
100014b4:	230d      	movs	r3, #13
100014b6:	e7ba      	b.n	1000142e <pll_init+0x5e>
100014b8:	00b71b00 	.word	0x00b71b00
100014bc:	d34be880 	.word	0xd34be880
100014c0:	32a9f880 	.word	0x32a9f880
100014c4:	4002c000 	.word	0x4002c000
100014c8:	4000e000 	.word	0x4000e000
100014cc:	4000f000 	.word	0x4000f000
100014d0:	4000c008 	.word	0x4000c008
100014d4:	00003004 	.word	0x00003004
100014d8:	10004280 	.word	0x10004280
100014dc:	100043a4 	.word	0x100043a4
100014e0:	100042d0 	.word	0x100042d0
100014e4:	10004320 	.word	0x10004320
100014e8:	1000433c 	.word	0x1000433c
100014ec:	10004388 	.word	0x10004388

100014f0 <tick_start>:
100014f0:	2380      	movs	r3, #128	; 0x80
100014f2:	009b      	lsls	r3, r3, #2
100014f4:	430b      	orrs	r3, r1
100014f6:	4a01      	ldr	r2, [pc, #4]	; (100014fc <tick_start+0xc>)
100014f8:	62d3      	str	r3, [r2, #44]	; 0x2c
100014fa:	4770      	bx	lr
100014fc:	40058000 	.word	0x40058000

10001500 <xosc_init>:
10001500:	4b06      	ldr	r3, [pc, #24]	; (1000151c <xosc_init+0x1c>)
10001502:	22aa      	movs	r2, #170	; 0xaa
10001504:	0112      	lsls	r2, r2, #4
10001506:	601a      	str	r2, [r3, #0]
10001508:	222f      	movs	r2, #47	; 0x2f
1000150a:	60da      	str	r2, [r3, #12]
1000150c:	4b04      	ldr	r3, [pc, #16]	; (10001520 <xosc_init+0x20>)
1000150e:	4a05      	ldr	r2, [pc, #20]	; (10001524 <xosc_init+0x24>)
10001510:	601a      	str	r2, [r3, #0]
10001512:	4b02      	ldr	r3, [pc, #8]	; (1000151c <xosc_init+0x1c>)
10001514:	685b      	ldr	r3, [r3, #4]
10001516:	2b00      	cmp	r3, #0
10001518:	dafb      	bge.n	10001512 <xosc_init+0x12>
1000151a:	4770      	bx	lr
1000151c:	40024000 	.word	0x40024000
10001520:	40026000 	.word	0x40026000
10001524:	00fab000 	.word	0x00fab000

10001528 <runtime_run_initializers_from>:
10001528:	b510      	push	{r4, lr}
1000152a:	0004      	movs	r4, r0
1000152c:	e001      	b.n	10001532 <runtime_run_initializers_from+0xa>
1000152e:	cc08      	ldmia	r4!, {r3}
10001530:	4798      	blx	r3
10001532:	4b02      	ldr	r3, [pc, #8]	; (1000153c <runtime_run_initializers_from+0x14>)
10001534:	429c      	cmp	r4, r3
10001536:	d3fa      	bcc.n	1000152e <runtime_run_initializers_from+0x6>
10001538:	bd10      	pop	{r4, pc}
1000153a:	46c0      	nop			; (mov r8, r8)
1000153c:	10003de4 	.word	0x10003de4

10001540 <first_per_core_initializer>:
10001540:	4770      	bx	lr
	...

10001544 <runtime_run_initializers>:
10001544:	b510      	push	{r4, lr}
10001546:	4802      	ldr	r0, [pc, #8]	; (10001550 <runtime_run_initializers+0xc>)
10001548:	f7ff ffee 	bl	10001528 <runtime_run_initializers_from>
1000154c:	bd10      	pop	{r4, pc}
1000154e:	46c0      	nop			; (mov r8, r8)
10001550:	10003da8 	.word	0x10003da8

10001554 <runtime_init_early_resets>:
10001554:	4b05      	ldr	r3, [pc, #20]	; (1000156c <runtime_init_early_resets+0x18>)
10001556:	4a06      	ldr	r2, [pc, #24]	; (10001570 <runtime_init_early_resets+0x1c>)
10001558:	601a      	str	r2, [r3, #0]
1000155a:	4b06      	ldr	r3, [pc, #24]	; (10001574 <runtime_init_early_resets+0x20>)
1000155c:	4a06      	ldr	r2, [pc, #24]	; (10001578 <runtime_init_early_resets+0x24>)
1000155e:	601a      	str	r2, [r3, #0]
10001560:	4b06      	ldr	r3, [pc, #24]	; (1000157c <runtime_init_early_resets+0x28>)
10001562:	681a      	ldr	r2, [r3, #0]
10001564:	4b04      	ldr	r3, [pc, #16]	; (10001578 <runtime_init_early_resets+0x24>)
10001566:	4393      	bics	r3, r2
10001568:	d1fa      	bne.n	10001560 <runtime_init_early_resets+0xc>
1000156a:	4770      	bx	lr
1000156c:	4000e000 	.word	0x4000e000
10001570:	fefbcdbf 	.word	0xfefbcdbf
10001574:	4000f000 	.word	0x4000f000
10001578:	003c7ffe 	.word	0x003c7ffe
1000157c:	4000c008 	.word	0x4000c008

10001580 <runtime_init_usb_power_down>:
10001580:	4b04      	ldr	r3, [pc, #16]	; (10001594 <runtime_init_usb_power_down+0x14>)
10001582:	6cdb      	ldr	r3, [r3, #76]	; 0x4c
10001584:	2b00      	cmp	r3, #0
10001586:	d103      	bne.n	10001590 <runtime_init_usb_power_down+0x10>
10001588:	4b03      	ldr	r3, [pc, #12]	; (10001598 <runtime_init_usb_power_down+0x18>)
1000158a:	2280      	movs	r2, #128	; 0x80
1000158c:	02d2      	lsls	r2, r2, #11
1000158e:	601a      	str	r2, [r3, #0]
10001590:	4770      	bx	lr
10001592:	46c0      	nop			; (mov r8, r8)
10001594:	50110000 	.word	0x50110000
10001598:	5011204c 	.word	0x5011204c

1000159c <runtime_init_post_clock_resets>:
1000159c:	4b04      	ldr	r3, [pc, #16]	; (100015b0 <runtime_init_post_clock_resets+0x14>)
1000159e:	4a05      	ldr	r2, [pc, #20]	; (100015b4 <runtime_init_post_clock_resets+0x18>)
100015a0:	601a      	str	r2, [r3, #0]
100015a2:	4b05      	ldr	r3, [pc, #20]	; (100015b8 <runtime_init_post_clock_resets+0x1c>)
100015a4:	681b      	ldr	r3, [r3, #0]
100015a6:	43db      	mvns	r3, r3
100015a8:	01db      	lsls	r3, r3, #7
100015aa:	d1fa      	bne.n	100015a2 <runtime_init_post_clock_resets+0x6>
100015ac:	4770      	bx	lr
100015ae:	46c0      	nop			; (mov r8, r8)
100015b0:	4000f000 	.word	0x4000f000
100015b4:	01ffffff 	.word	0x01ffffff
100015b8:	4000c008 	.word	0x4000c008

100015bc <runtime_init_rp2040_gpio_ie_disable>:
100015bc:	4b03      	ldr	r3, [pc, #12]	; (100015cc <runtime_init_rp2040_gpio_ie_disable+0x10>)
100015be:	2240      	movs	r2, #64	; 0x40
100015c0:	679a      	str	r2, [r3, #120]	; 0x78
100015c2:	675a      	str	r2, [r3, #116]	; 0x74
100015c4:	671a      	str	r2, [r3, #112]	; 0x70
100015c6:	66da      	str	r2, [r3, #108]	; 0x6c
100015c8:	4770      	bx	lr
100015ca:	46c0      	nop			; (mov r8, r8)
100015cc:	4001f000 	.word	0x4001f000

100015d0 <runtime_init_spin_locks_reset>:
100015d0:	b510      	push	{r4, lr}
100015d2:	f7fe ffd7 	bl	10000584 <spin_locks_reset>
100015d6:	bd10      	pop	{r4, pc}

100015d8 <runtime_init_install_ram_vector_table>:
100015d8:	b570      	push	{r4, r5, r6, lr}
100015da:	4c04      	ldr	r4, [pc, #16]	; (100015ec <runtime_init_install_ram_vector_table+0x14>)
100015dc:	68a1      	ldr	r1, [r4, #8]
100015de:	4d04      	ldr	r5, [pc, #16]	; (100015f0 <runtime_init_install_ram_vector_table+0x18>)
100015e0:	22c0      	movs	r2, #192	; 0xc0
100015e2:	0028      	movs	r0, r5
100015e4:	f001 f850 	bl	10002688 <__wrap___aeabi_memcpy>
100015e8:	60a5      	str	r5, [r4, #8]
100015ea:	bd70      	pop	{r4, r5, r6, pc}
100015ec:	e000ed00 	.word	0xe000ed00
100015f0:	20000000 	.word	0x20000000

100015f4 <start_all_ticks>:
100015f4:	b570      	push	{r4, r5, r6, lr}
100015f6:	2004      	movs	r0, #4
100015f8:	f7ff fee4 	bl	100013c4 <clock_get_hz>
100015fc:	4906      	ldr	r1, [pc, #24]	; (10001618 <start_all_ticks+0x24>)
100015fe:	f000 f8cf 	bl	100017a0 <__wrap___aeabi_uidiv>
10001602:	0005      	movs	r5, r0
10001604:	2400      	movs	r4, #0
10001606:	2c00      	cmp	r4, #0
10001608:	dd00      	ble.n	1000160c <start_all_ticks+0x18>
1000160a:	bd70      	pop	{r4, r5, r6, pc}
1000160c:	b2e0      	uxtb	r0, r4
1000160e:	0029      	movs	r1, r5
10001610:	f7ff ff6e 	bl	100014f0 <tick_start>
10001614:	3401      	adds	r4, #1
10001616:	e7f6      	b.n	10001606 <start_all_ticks+0x12>
10001618:	000f4240 	.word	0x000f4240

1000161c <runtime_init_clocks>:
1000161c:	b530      	push	{r4, r5, lr}
1000161e:	b083      	sub	sp, #12
10001620:	4b27      	ldr	r3, [pc, #156]	; (100016c0 <runtime_init_clocks+0xa4>)
10001622:	2200      	movs	r2, #0
10001624:	679a      	str	r2, [r3, #120]	; 0x78
10001626:	f7ff ff6b 	bl	10001500 <xosc_init>
1000162a:	4b26      	ldr	r3, [pc, #152]	; (100016c4 <runtime_init_clocks+0xa8>)
1000162c:	2201      	movs	r2, #1
1000162e:	601a      	str	r2, [r3, #0]
10001630:	4b23      	ldr	r3, [pc, #140]	; (100016c0 <runtime_init_clocks+0xa4>)
10001632:	6c5b      	ldr	r3, [r3, #68]	; 0x44
10001634:	2b01      	cmp	r3, #1
10001636:	d1fb      	bne.n	10001630 <runtime_init_clocks+0x14>
10001638:	4b23      	ldr	r3, [pc, #140]	; (100016c8 <runtime_init_clocks+0xac>)
1000163a:	2203      	movs	r2, #3
1000163c:	601a      	str	r2, [r3, #0]
1000163e:	4b20      	ldr	r3, [pc, #128]	; (100016c0 <runtime_init_clocks+0xa4>)
10001640:	6b9b      	ldr	r3, [r3, #56]	; 0x38
10001642:	2b01      	cmp	r3, #1
10001644:	d1fb      	bne.n	1000163e <runtime_init_clocks+0x22>
10001646:	3301      	adds	r3, #1
10001648:	9300      	str	r3, [sp, #0]
1000164a:	3304      	adds	r3, #4
1000164c:	4a1f      	ldr	r2, [pc, #124]	; (100016cc <runtime_init_clocks+0xb0>)
1000164e:	2101      	movs	r1, #1
10001650:	481f      	ldr	r0, [pc, #124]	; (100016d0 <runtime_init_clocks+0xb4>)
10001652:	f7ff febd 	bl	100013d0 <pll_init>
10001656:	2305      	movs	r3, #5
10001658:	9300      	str	r3, [sp, #0]
1000165a:	4a1e      	ldr	r2, [pc, #120]	; (100016d4 <runtime_init_clocks+0xb8>)
1000165c:	2101      	movs	r1, #1
1000165e:	481e      	ldr	r0, [pc, #120]	; (100016d8 <runtime_init_clocks+0xbc>)
10001660:	f7ff feb6 	bl	100013d0 <pll_init>
10001664:	4b1d      	ldr	r3, [pc, #116]	; (100016dc <runtime_init_clocks+0xc0>)
10001666:	2200      	movs	r2, #0
10001668:	2102      	movs	r1, #2
1000166a:	2004      	movs	r0, #4
1000166c:	f7ff fea0 	bl	100013b0 <clock_configure_undivided>
10001670:	4d1b      	ldr	r5, [pc, #108]	; (100016e0 <runtime_init_clocks+0xc4>)
10001672:	002b      	movs	r3, r5
10001674:	2200      	movs	r2, #0
10001676:	2101      	movs	r1, #1
10001678:	2005      	movs	r0, #5
1000167a:	f7ff fe99 	bl	100013b0 <clock_configure_undivided>
1000167e:	4c19      	ldr	r4, [pc, #100]	; (100016e4 <runtime_init_clocks+0xc8>)
10001680:	0023      	movs	r3, r4
10001682:	2200      	movs	r2, #0
10001684:	2100      	movs	r1, #0
10001686:	2007      	movs	r0, #7
10001688:	f7ff fe92 	bl	100013b0 <clock_configure_undivided>
1000168c:	0023      	movs	r3, r4
1000168e:	2200      	movs	r2, #0
10001690:	2100      	movs	r1, #0
10001692:	2008      	movs	r0, #8
10001694:	f7ff fe8c 	bl	100013b0 <clock_configure_undivided>
10001698:	2380      	movs	r3, #128	; 0x80
1000169a:	00db      	lsls	r3, r3, #3
1000169c:	9300      	str	r3, [sp, #0]
1000169e:	0023      	movs	r3, r4
100016a0:	2200      	movs	r2, #0
100016a2:	2100      	movs	r1, #0
100016a4:	2009      	movs	r0, #9
100016a6:	f7ff fe6f 	bl	10001388 <clock_configure_int_divider>
100016aa:	002b      	movs	r3, r5
100016ac:	2200      	movs	r2, #0
100016ae:	2100      	movs	r1, #0
100016b0:	2006      	movs	r0, #6
100016b2:	f7ff fe7d 	bl	100013b0 <clock_configure_undivided>
100016b6:	f7ff ff9d 	bl	100015f4 <start_all_ticks>
100016ba:	b003      	add	sp, #12
100016bc:	bd30      	pop	{r4, r5, pc}
100016be:	46c0      	nop			; (mov r8, r8)
100016c0:	40008000 	.word	0x40008000
100016c4:	4000b03c 	.word	0x4000b03c
100016c8:	4000b030 	.word	0x4000b030
100016cc:	59682f00 	.word	0x59682f00
100016d0:	40028000 	.word	0x40028000
100016d4:	47868c00 	.word	0x47868c00
100016d8:	4002c000 	.word	0x4002c000
100016dc:	00b71b00 	.word	0x00b71b00
100016e0:	07735940 	.word	0x07735940
100016e4:	02dc6c00 	.word	0x02dc6c00

100016e8 <__aeabi_bits_init>:
100016e8:	4801      	ldr	r0, [pc, #4]	; (100016f0 <__aeabi_bits_init+0x8>)
100016ea:	2104      	movs	r1, #4
100016ec:	4b01      	ldr	r3, [pc, #4]	; (100016f4 <__aeabi_bits_init+0xc>)
100016ee:	4718      	bx	r3
100016f0:	200002a0 	.word	0x200002a0
100016f4:	10001719 	.word	0x10001719

100016f8 <rom_func_lookup>:
100016f8:	b510      	push	{r4, lr}
100016fa:	0001      	movs	r1, r0
100016fc:	2318      	movs	r3, #24
100016fe:	881b      	ldrh	r3, [r3, #0]
10001700:	2214      	movs	r2, #20
10001702:	8810      	ldrh	r0, [r2, #0]
10001704:	4798      	blx	r3
10001706:	bd10      	pop	{r4, pc}

10001708 <rom_data_lookup>:
10001708:	b510      	push	{r4, lr}
1000170a:	0001      	movs	r1, r0
1000170c:	2318      	movs	r3, #24
1000170e:	881b      	ldrh	r3, [r3, #0]
10001710:	2216      	movs	r2, #22
10001712:	8810      	ldrh	r0, [r2, #0]
10001714:	4798      	blx	r3
10001716:	bd10      	pop	{r4, pc}

10001718 <rom_funcs_lookup>:
10001718:	b5f0      	push	{r4, r5, r6, r7, lr}
1000171a:	46c6      	mov	lr, r8
1000171c:	b500      	push	{lr}
1000171e:	0007      	movs	r7, r0
10001720:	000e      	movs	r6, r1
10001722:	2500      	movs	r5, #0
10001724:	2301      	movs	r3, #1
10001726:	4698      	mov	r8, r3
10001728:	e000      	b.n	1000172c <rom_funcs_lookup+0x14>
1000172a:	3501      	adds	r5, #1
1000172c:	42b5      	cmp	r5, r6
1000172e:	d20a      	bcs.n	10001746 <rom_funcs_lookup+0x2e>
10001730:	00ac      	lsls	r4, r5, #2
10001732:	193c      	adds	r4, r7, r4
10001734:	6820      	ldr	r0, [r4, #0]
10001736:	f7ff ffdf 	bl	100016f8 <rom_func_lookup>
1000173a:	6020      	str	r0, [r4, #0]
1000173c:	2800      	cmp	r0, #0
1000173e:	d1f4      	bne.n	1000172a <rom_funcs_lookup+0x12>
10001740:	2300      	movs	r3, #0
10001742:	4698      	mov	r8, r3
10001744:	e7f1      	b.n	1000172a <rom_funcs_lookup+0x12>
10001746:	4640      	mov	r0, r8
10001748:	bc80      	pop	{r7}
1000174a:	46b8      	mov	r8, r7
1000174c:	bdf0      	pop	{r4, r5, r6, r7, pc}
	...

10001750 <__wrap___aeabi_idiv>:
10001750:	4a12      	ldr	r2, [pc, #72]	; (1000179c <divmod_s32s32_savestate+0x18>)
10001752:	6f93      	ldr	r3, [r2, #120]	; 0x78
10001754:	089b      	lsrs	r3, r3, #2
10001756:	d215      	bcs.n	10001784 <divmod_s32s32_savestate>

10001758 <divmod_s32s32_unsafe>:
10001758:	6690      	str	r0, [r2, #104]	; 0x68
1000175a:	66d1      	str	r1, [r2, #108]	; 0x6c
1000175c:	2900      	cmp	r1, #0
1000175e:	d005      	beq.n	1000176c <divmod_s32s32_unsafe+0x14>
10001760:	e7ff      	b.n	10001762 <divmod_s32s32_unsafe+0xa>
10001762:	e7ff      	b.n	10001764 <divmod_s32s32_unsafe+0xc>
10001764:	e7ff      	b.n	10001766 <divmod_s32s32_unsafe+0xe>
10001766:	6f51      	ldr	r1, [r2, #116]	; 0x74
10001768:	6f10      	ldr	r0, [r2, #112]	; 0x70
1000176a:	4770      	bx	lr
1000176c:	b504      	push	{r2, lr}
1000176e:	2180      	movs	r1, #128	; 0x80
10001770:	0609      	lsls	r1, r1, #24
10001772:	17c2      	asrs	r2, r0, #31
10001774:	4051      	eors	r1, r2
10001776:	2800      	cmp	r0, #0
10001778:	d000      	beq.n	1000177c <divmod_s32s32_unsafe+0x24>
1000177a:	43c8      	mvns	r0, r1
1000177c:	f002 fb04 	bl	10003d88 <____aeabi_idiv0_veneer>
10001780:	2100      	movs	r1, #0
10001782:	bd04      	pop	{r2, pc}

10001784 <divmod_s32s32_savestate>:
10001784:	b5f0      	push	{r4, r5, r6, r7, lr}
10001786:	6e14      	ldr	r4, [r2, #96]	; 0x60
10001788:	6e55      	ldr	r5, [r2, #100]	; 0x64
1000178a:	6f57      	ldr	r7, [r2, #116]	; 0x74
1000178c:	6f16      	ldr	r6, [r2, #112]	; 0x70
1000178e:	f7ff ffe3 	bl	10001758 <divmod_s32s32_unsafe>
10001792:	6614      	str	r4, [r2, #96]	; 0x60
10001794:	6655      	str	r5, [r2, #100]	; 0x64
10001796:	6757      	str	r7, [r2, #116]	; 0x74
10001798:	6716      	str	r6, [r2, #112]	; 0x70
1000179a:	bdf0      	pop	{r4, r5, r6, r7, pc}
1000179c:	d0000000 	.word	0xd0000000

100017a0 <__wrap___aeabi_uidiv>:
100017a0:	4a11      	ldr	r2, [pc, #68]	; (100017e8 <divmod_u32u32_savestate+0x18>)
100017a2:	6f93      	ldr	r3, [r2, #120]	; 0x78
100017a4:	089b      	lsrs	r3, r3, #2
100017a6:	d213      	bcs.n	100017d0 <divmod_u32u32_savestate>

100017a8 <divmod_u32u32_unsafe>:
100017a8:	6610      	str	r0, [r2, #96]	; 0x60
100017aa:	6651      	str	r1, [r2, #100]	; 0x64
100017ac:	2900      	cmp	r1, #0
100017ae:	d005      	beq.n	100017bc <divmod_u32u32_unsafe+0x14>
100017b0:	e7ff      	b.n	100017b2 <divmod_u32u32_unsafe+0xa>
100017b2:	e7ff      	b.n	100017b4 <divmod_u32u32_unsafe+0xc>
100017b4:	e7ff      	b.n	100017b6 <divmod_u32u32_unsafe+0xe>
100017b6:	6f51      	ldr	r1, [r2, #116]	; 0x74
100017b8:	6f10      	ldr	r0, [r2, #112]	; 0x70
100017ba:	4770      	bx	lr
100017bc:	b504      	push	{r2, lr}
100017be:	2800      	cmp	r0, #0
100017c0:	d001      	beq.n	100017c6 <divmod_u32u32_unsafe+0x1e>
100017c2:	2000      	movs	r0, #0
100017c4:	43c0      	mvns	r0, r0
100017c6:	f002 fadf 	bl	10003d88 <____aeabi_idiv0_veneer>
100017ca:	2100      	movs	r1, #0
100017cc:	bd04      	pop	{r2, pc}
100017ce:	46c0      	nop			; (mov r8, r8)

100017d0 <divmod_u32u32_savestate>:
100017d0:	b5f0      	push	{r4, r5, r6, r7, lr}
100017d2:	6e14      	ldr	r4, [r2, #96]	; 0x60
100017d4:	6e55      	ldr	r5, [r2, #100]	; 0x64
100017d6:	6f57      	ldr	r7, [r2, #116]	; 0x74
100017d8:	6f16      	ldr	r6, [r2, #112]	; 0x70
100017da:	f7ff ffe5 	bl	100017a8 <divmod_u32u32_unsafe>
100017de:	6614      	str	r4, [r2, #96]	; 0x60
100017e0:	6655      	str	r5, [r2, #100]	; 0x64
100017e2:	6757      	str	r7, [r2, #116]	; 0x74
100017e4:	6716      	str	r6, [r2, #112]	; 0x70
100017e6:	bdf0      	pop	{r4, r5, r6, r7, pc}
100017e8:	d0000000 	.word	0xd0000000

100017ec <__wrap___aeabi_ldivmod>:
100017ec:	4694      	mov	ip, r2
100017ee:	4a4a      	ldr	r2, [pc, #296]	; (10001918 <udiv0+0x1a>)
100017f0:	6f92      	ldr	r2, [r2, #120]	; 0x78
100017f2:	0892      	lsrs	r2, r2, #2
100017f4:	4662      	mov	r2, ip
100017f6:	d201      	bcs.n	100017fc <divmod_s64s64_savestate>
100017f8:	e028      	b.n	1000184c <divmod_s64s64_unsafe>
100017fa:	46c0      	nop			; (mov r8, r8)

100017fc <divmod_s64s64_savestate>:
100017fc:	b5f0      	push	{r4, r5, r6, r7, lr}
100017fe:	4e46      	ldr	r6, [pc, #280]	; (10001918 <udiv0+0x1a>)
10001800:	6e34      	ldr	r4, [r6, #96]	; 0x60
10001802:	6e75      	ldr	r5, [r6, #100]	; 0x64
10001804:	6f77      	ldr	r7, [r6, #116]	; 0x74
10001806:	6f36      	ldr	r6, [r6, #112]	; 0x70
10001808:	f000 f820 	bl	1000184c <divmod_s64s64_unsafe>
1000180c:	4694      	mov	ip, r2
1000180e:	4a42      	ldr	r2, [pc, #264]	; (10001918 <udiv0+0x1a>)
10001810:	6614      	str	r4, [r2, #96]	; 0x60
10001812:	6655      	str	r5, [r2, #100]	; 0x64
10001814:	6757      	str	r7, [r2, #116]	; 0x74
10001816:	6716      	str	r6, [r2, #112]	; 0x70
10001818:	4662      	mov	r2, ip
1000181a:	bdf0      	pop	{r4, r5, r6, r7, pc}

1000181c <__wrap___aeabi_uldivmod>:
1000181c:	4694      	mov	ip, r2
1000181e:	4a3e      	ldr	r2, [pc, #248]	; (10001918 <udiv0+0x1a>)
10001820:	6f92      	ldr	r2, [r2, #120]	; 0x78
10001822:	0892      	lsrs	r2, r2, #2
10001824:	4662      	mov	r2, ip
10001826:	d201      	bcs.n	1000182c <divmod_u64u64_savestate>
10001828:	e054      	b.n	100018d4 <divmod_u64u64_unsafe>
1000182a:	46c0      	nop			; (mov r8, r8)

1000182c <divmod_u64u64_savestate>:
1000182c:	b5f0      	push	{r4, r5, r6, r7, lr}
1000182e:	4e3a      	ldr	r6, [pc, #232]	; (10001918 <udiv0+0x1a>)
10001830:	6e34      	ldr	r4, [r6, #96]	; 0x60
10001832:	6e75      	ldr	r5, [r6, #100]	; 0x64
10001834:	6f77      	ldr	r7, [r6, #116]	; 0x74
10001836:	6f36      	ldr	r6, [r6, #112]	; 0x70
10001838:	f000 f84c 	bl	100018d4 <divmod_u64u64_unsafe>
1000183c:	4694      	mov	ip, r2
1000183e:	4a36      	ldr	r2, [pc, #216]	; (10001918 <udiv0+0x1a>)
10001840:	6614      	str	r4, [r2, #96]	; 0x60
10001842:	6655      	str	r5, [r2, #100]	; 0x64
10001844:	6757      	str	r7, [r2, #116]	; 0x74
10001846:	6716      	str	r6, [r2, #112]	; 0x70
10001848:	4662      	mov	r2, ip
1000184a:	bdf0      	pop	{r4, r5, r6, r7, pc}

1000184c <divmod_s64s64_unsafe>:
1000184c:	2b00      	cmp	r3, #0
1000184e:	db24      	blt.n	1000189a <l42_1+0x26>
10001850:	d011      	beq.n	10001876 <l42_1+0x2>
10001852:	2900      	cmp	r1, #0
10001854:	da3e      	bge.n	100018d4 <divmod_u64u64_unsafe>
10001856:	b500      	push	{lr}
10001858:	43c9      	mvns	r1, r1
1000185a:	4240      	negs	r0, r0
1000185c:	d100      	bne.n	10001860 <l40_1>
1000185e:	3101      	adds	r1, #1

10001860 <l40_1>:
10001860:	f000 f838 	bl	100018d4 <divmod_u64u64_unsafe>
10001864:	43c9      	mvns	r1, r1
10001866:	4240      	negs	r0, r0
10001868:	d100      	bne.n	1000186c <l41_1>
1000186a:	3101      	adds	r1, #1

1000186c <l41_1>:
1000186c:	43db      	mvns	r3, r3
1000186e:	4252      	negs	r2, r2
10001870:	d100      	bne.n	10001874 <l42_1>
10001872:	3301      	adds	r3, #1

10001874 <l42_1>:
10001874:	bd00      	pop	{pc}
10001876:	2a00      	cmp	r2, #0
10001878:	d1eb      	bne.n	10001852 <divmod_s64s64_unsafe+0x6>
1000187a:	2800      	cmp	r0, #0
1000187c:	d101      	bne.n	10001882 <l42_1+0xe>
1000187e:	2900      	cmp	r1, #0
10001880:	d005      	beq.n	1000188e <l42_1+0x1a>
10001882:	2000      	movs	r0, #0
10001884:	0fc9      	lsrs	r1, r1, #31
10001886:	07c9      	lsls	r1, r1, #31
10001888:	d101      	bne.n	1000188e <l42_1+0x1a>
1000188a:	43c0      	mvns	r0, r0
1000188c:	0841      	lsrs	r1, r0, #1
1000188e:	b500      	push	{lr}
10001890:	f002 fa72 	bl	10003d78 <____aeabi_ldiv0_veneer>
10001894:	2200      	movs	r2, #0
10001896:	2300      	movs	r3, #0
10001898:	bd00      	pop	{pc}
1000189a:	b500      	push	{lr}
1000189c:	2900      	cmp	r1, #0
1000189e:	db0a      	blt.n	100018b6 <l44_1+0x2>
100018a0:	43db      	mvns	r3, r3
100018a2:	4252      	negs	r2, r2
100018a4:	d100      	bne.n	100018a8 <l43_1>
100018a6:	3301      	adds	r3, #1

100018a8 <l43_1>:
100018a8:	f000 f814 	bl	100018d4 <divmod_u64u64_unsafe>
100018ac:	43c9      	mvns	r1, r1
100018ae:	4240      	negs	r0, r0
100018b0:	d100      	bne.n	100018b4 <l44_1>
100018b2:	3101      	adds	r1, #1

100018b4 <l44_1>:
100018b4:	bd00      	pop	{pc}
100018b6:	43c9      	mvns	r1, r1
100018b8:	4240      	negs	r0, r0
100018ba:	d100      	bne.n	100018be <l45_1>
100018bc:	3101      	adds	r1, #1

100018be <l45_1>:
100018be:	43db      	mvns	r3, r3
100018c0:	4252      	negs	r2, r2
100018c2:	d100      	bne.n	100018c6 <l46_1>
100018c4:	3301      	adds	r3, #1

100018c6 <l46_1>:
100018c6:	f000 f805 	bl	100018d4 <divmod_u64u64_unsafe>
100018ca:	43db      	mvns	r3, r3
100018cc:	4252      	negs	r2, r2
100018ce:	d100      	bne.n	100018d2 <l47_1>
100018d0:	3301      	adds	r3, #1

100018d2 <l47_1>:
100018d2:	bd00      	pop	{pc}

100018d4 <divmod_u64u64_unsafe>:
100018d4:	2900      	cmp	r1, #0
100018d6:	d123      	bne.n	10001920 <y64>
100018d8:	2b00      	cmp	r3, #0
100018da:	d118      	bne.n	1000190e <udiv0+0x10>
100018dc:	2a00      	cmp	r2, #0
100018de:	d00c      	beq.n	100018fa <divmod_u64u64_unsafe+0x26>
100018e0:	46bc      	mov	ip, r7
100018e2:	4f0d      	ldr	r7, [pc, #52]	; (10001918 <udiv0+0x1a>)
100018e4:	6638      	str	r0, [r7, #96]	; 0x60
100018e6:	667a      	str	r2, [r7, #100]	; 0x64
100018e8:	2100      	movs	r1, #0
100018ea:	2300      	movs	r3, #0
100018ec:	e7ff      	b.n	100018ee <divmod_u64u64_unsafe+0x1a>
100018ee:	e7ff      	b.n	100018f0 <divmod_u64u64_unsafe+0x1c>
100018f0:	e7ff      	b.n	100018f2 <divmod_u64u64_unsafe+0x1e>
100018f2:	6f7a      	ldr	r2, [r7, #116]	; 0x74
100018f4:	6f38      	ldr	r0, [r7, #112]	; 0x70
100018f6:	4667      	mov	r7, ip
100018f8:	4770      	bx	lr
100018fa:	2800      	cmp	r0, #0
100018fc:	d001      	beq.n	10001902 <udiv0+0x4>

100018fe <udiv0>:
100018fe:	4807      	ldr	r0, [pc, #28]	; (1000191c <udiv0+0x1e>)
10001900:	0001      	movs	r1, r0
10001902:	b500      	push	{lr}
10001904:	f002 fa38 	bl	10003d78 <____aeabi_ldiv0_veneer>
10001908:	2200      	movs	r2, #0
1000190a:	2300      	movs	r3, #0
1000190c:	bd00      	pop	{pc}
1000190e:	0002      	movs	r2, r0
10001910:	000b      	movs	r3, r1
10001912:	2000      	movs	r0, #0
10001914:	2100      	movs	r1, #0
10001916:	4770      	bx	lr
10001918:	d0000000 	.word	0xd0000000
1000191c:	ffffffff 	.word	0xffffffff

10001920 <y64>:
10001920:	2b00      	cmp	r3, #0
10001922:	d000      	beq.n	10001926 <y64+0x6>
10001924:	e0bf      	b.n	10001aa6 <y64_x48>
10001926:	0c13      	lsrs	r3, r2, #16
10001928:	d128      	bne.n	1000197c <y64_x32>
1000192a:	2a00      	cmp	r2, #0
1000192c:	d0e7      	beq.n	100018fe <udiv0>
1000192e:	b480      	push	{r7}
10001930:	4f11      	ldr	r7, [pc, #68]	; (10001978 <y64+0x58>)
10001932:	6639      	str	r1, [r7, #96]	; 0x60
10001934:	667a      	str	r2, [r7, #100]	; 0x64
10001936:	e7ff      	b.n	10001938 <y64+0x18>
10001938:	e7ff      	b.n	1000193a <y64+0x1a>
1000193a:	b430      	push	{r4, r5}
1000193c:	0c04      	lsrs	r4, r0, #16
1000193e:	6f7b      	ldr	r3, [r7, #116]	; 0x74
10001940:	6f39      	ldr	r1, [r7, #112]	; 0x70
10001942:	041b      	lsls	r3, r3, #16
10001944:	4323      	orrs	r3, r4
10001946:	663b      	str	r3, [r7, #96]	; 0x60
10001948:	667a      	str	r2, [r7, #100]	; 0x64
1000194a:	e7ff      	b.n	1000194c <y64+0x2c>
1000194c:	e7ff      	b.n	1000194e <y64+0x2e>
1000194e:	e7ff      	b.n	10001950 <y64+0x30>
10001950:	46c0      	nop			; (mov r8, r8)
10001952:	b284      	uxth	r4, r0
10001954:	6f7b      	ldr	r3, [r7, #116]	; 0x74
10001956:	6f3d      	ldr	r5, [r7, #112]	; 0x70
10001958:	041b      	lsls	r3, r3, #16
1000195a:	4323      	orrs	r3, r4
1000195c:	663b      	str	r3, [r7, #96]	; 0x60
1000195e:	667a      	str	r2, [r7, #100]	; 0x64
10001960:	e7ff      	b.n	10001962 <y64+0x42>
10001962:	e7ff      	b.n	10001964 <y64+0x44>
10001964:	46c0      	nop			; (mov r8, r8)
10001966:	2300      	movs	r3, #0
10001968:	042c      	lsls	r4, r5, #16
1000196a:	0c2d      	lsrs	r5, r5, #16
1000196c:	6f7a      	ldr	r2, [r7, #116]	; 0x74
1000196e:	6f38      	ldr	r0, [r7, #112]	; 0x70
10001970:	1900      	adds	r0, r0, r4
10001972:	4169      	adcs	r1, r5
10001974:	bcb0      	pop	{r4, r5, r7}
10001976:	4770      	bx	lr
10001978:	d0000000 	.word	0xd0000000

1000197c <y64_x32>:
1000197c:	b5f0      	push	{r4, r5, r6, r7, lr}
1000197e:	4694      	mov	ip, r2
10001980:	2500      	movs	r5, #0
10001982:	0e14      	lsrs	r4, r2, #24
10001984:	d101      	bne.n	1000198a <y64_x32+0xe>
10001986:	0212      	lsls	r2, r2, #8
10001988:	3508      	adds	r5, #8
1000198a:	0f14      	lsrs	r4, r2, #28
1000198c:	d101      	bne.n	10001992 <y64_x32+0x16>
1000198e:	0112      	lsls	r2, r2, #4
10001990:	3504      	adds	r5, #4
10001992:	0f94      	lsrs	r4, r2, #30
10001994:	d101      	bne.n	1000199a <y64_x32+0x1e>
10001996:	0092      	lsls	r2, r2, #2
10001998:	3502      	adds	r5, #2
1000199a:	0fd4      	lsrs	r4, r2, #31
1000199c:	d101      	bne.n	100019a2 <y64_x32+0x26>
1000199e:	0052      	lsls	r2, r2, #1
100019a0:	3501      	adds	r5, #1
100019a2:	0bd4      	lsrs	r4, r2, #15
100019a4:	3401      	adds	r4, #1
100019a6:	4f25      	ldr	r7, [pc, #148]	; (10001a3c <y64_x32+0xc0>)
100019a8:	667c      	str	r4, [r7, #100]	; 0x64
100019aa:	4c25      	ldr	r4, [pc, #148]	; (10001a40 <y64_x32+0xc4>)
100019ac:	663c      	str	r4, [r7, #96]	; 0x60
100019ae:	0c0e      	lsrs	r6, r1, #16
100019b0:	b293      	uxth	r3, r2
100019b2:	e7ff      	b.n	100019b4 <y64_x32+0x38>
100019b4:	e7ff      	b.n	100019b6 <y64_x32+0x3a>
100019b6:	e7ff      	b.n	100019b8 <y64_x32+0x3c>
100019b8:	6f3c      	ldr	r4, [r7, #112]	; 0x70
100019ba:	4366      	muls	r6, r4
100019bc:	0c36      	lsrs	r6, r6, #16
100019be:	0377      	lsls	r7, r6, #13
100019c0:	46be      	mov	lr, r7
100019c2:	4373      	muls	r3, r6
100019c4:	0bdf      	lsrs	r7, r3, #15
100019c6:	045b      	lsls	r3, r3, #17
100019c8:	1ac0      	subs	r0, r0, r3
100019ca:	41b9      	sbcs	r1, r7
100019cc:	0c13      	lsrs	r3, r2, #16
100019ce:	4373      	muls	r3, r6
100019d0:	18db      	adds	r3, r3, r3
100019d2:	1ac9      	subs	r1, r1, r3
100019d4:	08ce      	lsrs	r6, r1, #3
100019d6:	4366      	muls	r6, r4
100019d8:	0c36      	lsrs	r6, r6, #16
100019da:	44b6      	add	lr, r6
100019dc:	b293      	uxth	r3, r2
100019de:	4373      	muls	r3, r6
100019e0:	0f1f      	lsrs	r7, r3, #28
100019e2:	011b      	lsls	r3, r3, #4
100019e4:	1ac0      	subs	r0, r0, r3
100019e6:	41b9      	sbcs	r1, r7
100019e8:	0c13      	lsrs	r3, r2, #16
100019ea:	4373      	muls	r3, r6
100019ec:	0b1f      	lsrs	r7, r3, #12
100019ee:	051b      	lsls	r3, r3, #20
100019f0:	1ac0      	subs	r0, r0, r3
100019f2:	41b9      	sbcs	r1, r7
100019f4:	0d86      	lsrs	r6, r0, #22
100019f6:	028f      	lsls	r7, r1, #10
100019f8:	433e      	orrs	r6, r7
100019fa:	4366      	muls	r6, r4
100019fc:	0c36      	lsrs	r6, r6, #16
100019fe:	2d09      	cmp	r5, #9
10001a00:	db24      	blt.n	10001a4c <last0>
10001a02:	0a52      	lsrs	r2, r2, #9
10001a04:	4372      	muls	r2, r6
10001a06:	1a80      	subs	r0, r0, r2
10001a08:	0377      	lsls	r7, r6, #13
10001a0a:	0a46      	lsrs	r6, r0, #9
10001a0c:	4366      	muls	r6, r4
10001a0e:	0c36      	lsrs	r6, r6, #16
10001a10:	2316      	movs	r3, #22
10001a12:	1b5b      	subs	r3, r3, r5
10001a14:	40de      	lsrs	r6, r3
10001a16:	40df      	lsrs	r7, r3
10001a18:	19bf      	adds	r7, r7, r6
10001a1a:	4664      	mov	r4, ip
10001a1c:	4366      	muls	r6, r4
10001a1e:	1b82      	subs	r2, r0, r6
10001a20:	4670      	mov	r0, lr
10001a22:	3504      	adds	r5, #4
10001a24:	3306      	adds	r3, #6
10001a26:	0001      	movs	r1, r0
10001a28:	40d9      	lsrs	r1, r3
10001a2a:	40a8      	lsls	r0, r5
10001a2c:	19c0      	adds	r0, r0, r7
10001a2e:	d300      	bcc.n	10001a32 <y64_x32+0xb6>
10001a30:	3101      	adds	r1, #1
10001a32:	42a2      	cmp	r2, r4
10001a34:	d206      	bcs.n	10001a44 <y64_x32+0xc8>
10001a36:	2300      	movs	r3, #0
10001a38:	bdf0      	pop	{r4, r5, r6, r7, pc}
10001a3a:	0000      	.short	0x0000
10001a3c:	d0000000 	.word	0xd0000000
10001a40:	ffffffff 	.word	0xffffffff
10001a44:	1b12      	subs	r2, r2, r4
10001a46:	3001      	adds	r0, #1
10001a48:	d3f3      	bcc.n	10001a32 <y64_x32+0xb6>
10001a4a:	e7f1      	b.n	10001a30 <y64_x32+0xb4>

10001a4c <last0>:
10001a4c:	2709      	movs	r7, #9
10001a4e:	1b7f      	subs	r7, r7, r5
10001a50:	40fe      	lsrs	r6, r7
10001a52:	4664      	mov	r4, ip
10001a54:	b2a2      	uxth	r2, r4
10001a56:	4372      	muls	r2, r6
10001a58:	1a80      	subs	r0, r0, r2
10001a5a:	d200      	bcs.n	10001a5e <last0+0x12>
10001a5c:	3901      	subs	r1, #1
10001a5e:	0c22      	lsrs	r2, r4, #16
10001a60:	4372      	muls	r2, r6
10001a62:	0c13      	lsrs	r3, r2, #16
10001a64:	0412      	lsls	r2, r2, #16
10001a66:	1a82      	subs	r2, r0, r2
10001a68:	4199      	sbcs	r1, r3
10001a6a:	000b      	movs	r3, r1
10001a6c:	4670      	mov	r0, lr
10001a6e:	3504      	adds	r5, #4
10001a70:	3713      	adds	r7, #19
10001a72:	0001      	movs	r1, r0
10001a74:	40f9      	lsrs	r1, r7
10001a76:	40a8      	lsls	r0, r5
10001a78:	1980      	adds	r0, r0, r6
10001a7a:	d300      	bcc.n	10001a7e <last0+0x32>
10001a7c:	3101      	adds	r1, #1
10001a7e:	2b00      	cmp	r3, #0
10001a80:	d102      	bne.n	10001a88 <last0+0x3c>
10001a82:	42a2      	cmp	r2, r4
10001a84:	d20a      	bcs.n	10001a9c <last0+0x50>
10001a86:	bdf0      	pop	{r4, r5, r6, r7, pc}
10001a88:	3001      	adds	r0, #1
10001a8a:	d300      	bcc.n	10001a8e <last0+0x42>
10001a8c:	3101      	adds	r1, #1
10001a8e:	1b12      	subs	r2, r2, r4
10001a90:	d2fa      	bcs.n	10001a88 <last0+0x3c>
10001a92:	3b01      	subs	r3, #1
10001a94:	d1f8      	bne.n	10001a88 <last0+0x3c>
10001a96:	42a2      	cmp	r2, r4
10001a98:	d200      	bcs.n	10001a9c <last0+0x50>
10001a9a:	bdf0      	pop	{r4, r5, r6, r7, pc}
10001a9c:	3001      	adds	r0, #1
10001a9e:	d300      	bcc.n	10001aa2 <last0+0x56>
10001aa0:	3101      	adds	r1, #1
10001aa2:	1b12      	subs	r2, r2, r4
10001aa4:	e7f7      	b.n	10001a96 <last0+0x4a>

10001aa6 <y64_x48>:
10001aa6:	b5f0      	push	{r4, r5, r6, r7, lr}
10001aa8:	0c1c      	lsrs	r4, r3, #16
10001aaa:	d000      	beq.n	10001aae <y64_x48+0x8>
10001aac:	e080      	b.n	10001bb0 <y64_x64>
10001aae:	b40c      	push	{r2, r3}
10001ab0:	2500      	movs	r5, #0
10001ab2:	0a1c      	lsrs	r4, r3, #8
10001ab4:	d104      	bne.n	10001ac0 <y64_x48+0x1a>
10001ab6:	021b      	lsls	r3, r3, #8
10001ab8:	0e16      	lsrs	r6, r2, #24
10001aba:	4333      	orrs	r3, r6
10001abc:	0212      	lsls	r2, r2, #8
10001abe:	3508      	adds	r5, #8
10001ac0:	0b1c      	lsrs	r4, r3, #12
10001ac2:	d104      	bne.n	10001ace <y64_x48+0x28>
10001ac4:	011b      	lsls	r3, r3, #4
10001ac6:	0f16      	lsrs	r6, r2, #28
10001ac8:	4333      	orrs	r3, r6
10001aca:	0112      	lsls	r2, r2, #4
10001acc:	3504      	adds	r5, #4
10001ace:	0b9c      	lsrs	r4, r3, #14
10001ad0:	d104      	bne.n	10001adc <y64_x48+0x36>
10001ad2:	009b      	lsls	r3, r3, #2
10001ad4:	0f96      	lsrs	r6, r2, #30
10001ad6:	4333      	orrs	r3, r6
10001ad8:	0092      	lsls	r2, r2, #2
10001ada:	3502      	adds	r5, #2
10001adc:	0bdc      	lsrs	r4, r3, #15
10001ade:	d102      	bne.n	10001ae6 <y64_x48+0x40>
10001ae0:	1892      	adds	r2, r2, r2
10001ae2:	415b      	adcs	r3, r3
10001ae4:	3501      	adds	r5, #1
10001ae6:	001c      	movs	r4, r3
10001ae8:	1897      	adds	r7, r2, r2
10001aea:	4164      	adcs	r4, r4
10001aec:	3401      	adds	r4, #1
10001aee:	4f46      	ldr	r7, [pc, #280]	; (10001c08 <y64_x64+0x58>)
10001af0:	667c      	str	r4, [r7, #100]	; 0x64
10001af2:	4c46      	ldr	r4, [pc, #280]	; (10001c0c <y64_x64+0x5c>)
10001af4:	663c      	str	r4, [r7, #96]	; 0x60
10001af6:	0c0e      	lsrs	r6, r1, #16
10001af8:	e7ff      	b.n	10001afa <y64_x48+0x54>
10001afa:	e7ff      	b.n	10001afc <y64_x48+0x56>
10001afc:	e7ff      	b.n	10001afe <y64_x48+0x58>
10001afe:	46c0      	nop			; (mov r8, r8)
10001b00:	6f3c      	ldr	r4, [r7, #112]	; 0x70
10001b02:	4366      	muls	r6, r4
10001b04:	0c36      	lsrs	r6, r6, #16
10001b06:	0377      	lsls	r7, r6, #13
10001b08:	46be      	mov	lr, r7
10001b0a:	b297      	uxth	r7, r2
10001b0c:	4377      	muls	r7, r6
10001b0e:	1bc0      	subs	r0, r0, r7
10001b10:	d200      	bcs.n	10001b14 <y64_x48+0x6e>
10001b12:	3901      	subs	r1, #1
10001b14:	1bc0      	subs	r0, r0, r7
10001b16:	d200      	bcs.n	10001b1a <y64_x48+0x74>
10001b18:	3901      	subs	r1, #1
10001b1a:	b29f      	uxth	r7, r3
10001b1c:	4377      	muls	r7, r6
10001b1e:	1bc9      	subs	r1, r1, r7
10001b20:	1bc9      	subs	r1, r1, r7
10001b22:	0c17      	lsrs	r7, r2, #16
10001b24:	4377      	muls	r7, r6
10001b26:	047e      	lsls	r6, r7, #17
10001b28:	0bff      	lsrs	r7, r7, #15
10001b2a:	1b80      	subs	r0, r0, r6
10001b2c:	41b9      	sbcs	r1, r7
10001b2e:	08ce      	lsrs	r6, r1, #3
10001b30:	4366      	muls	r6, r4
10001b32:	0c36      	lsrs	r6, r6, #16
10001b34:	2d0c      	cmp	r5, #12
10001b36:	db33      	blt.n	10001ba0 <last1>
10001b38:	44b6      	add	lr, r6
10001b3a:	0b12      	lsrs	r2, r2, #12
10001b3c:	051f      	lsls	r7, r3, #20
10001b3e:	433a      	orrs	r2, r7
10001b40:	0b1b      	lsrs	r3, r3, #12
10001b42:	b297      	uxth	r7, r2
10001b44:	4377      	muls	r7, r6
10001b46:	1bc0      	subs	r0, r0, r7
10001b48:	d200      	bcs.n	10001b4c <y64_x48+0xa6>
10001b4a:	3901      	subs	r1, #1
10001b4c:	b29f      	uxth	r7, r3
10001b4e:	4377      	muls	r7, r6
10001b50:	1bc9      	subs	r1, r1, r7
10001b52:	0c17      	lsrs	r7, r2, #16
10001b54:	4377      	muls	r7, r6
10001b56:	043e      	lsls	r6, r7, #16
10001b58:	0c3f      	lsrs	r7, r7, #16
10001b5a:	1b80      	subs	r0, r0, r6
10001b5c:	41b9      	sbcs	r1, r7
10001b5e:	0d86      	lsrs	r6, r0, #22
10001b60:	028f      	lsls	r7, r1, #10
10001b62:	433e      	orrs	r6, r7
10001b64:	4366      	muls	r6, r4
10001b66:	2729      	movs	r7, #41	; 0x29
10001b68:	1b7f      	subs	r7, r7, r5
10001b6a:	40fe      	lsrs	r6, r7
10001b6c:	3d0c      	subs	r5, #12
10001b6e:	4677      	mov	r7, lr
10001b70:	40af      	lsls	r7, r5
10001b72:	19bf      	adds	r7, r7, r6
10001b74:	bc30      	pop	{r4, r5}
10001b76:	b2a2      	uxth	r2, r4
10001b78:	b2ab      	uxth	r3, r5
10001b7a:	4372      	muls	r2, r6
10001b7c:	4373      	muls	r3, r6
10001b7e:	1a80      	subs	r0, r0, r2
10001b80:	4199      	sbcs	r1, r3
10001b82:	0c22      	lsrs	r2, r4, #16
10001b84:	4372      	muls	r2, r6
10001b86:	0c13      	lsrs	r3, r2, #16
10001b88:	0412      	lsls	r2, r2, #16
10001b8a:	1a80      	subs	r0, r0, r2
10001b8c:	4199      	sbcs	r1, r3
10001b8e:	0002      	movs	r2, r0
10001b90:	000b      	movs	r3, r1
10001b92:	3701      	adds	r7, #1
10001b94:	1b00      	subs	r0, r0, r4
10001b96:	41a9      	sbcs	r1, r5
10001b98:	d2f9      	bcs.n	10001b8e <y64_x48+0xe8>
10001b9a:	1e78      	subs	r0, r7, #1
10001b9c:	2100      	movs	r1, #0
10001b9e:	bdf0      	pop	{r4, r5, r6, r7, pc}

10001ba0 <last1>:
10001ba0:	270c      	movs	r7, #12
10001ba2:	1b7f      	subs	r7, r7, r5
10001ba4:	40fe      	lsrs	r6, r7
10001ba6:	4677      	mov	r7, lr
10001ba8:	0b7f      	lsrs	r7, r7, #13
10001baa:	40af      	lsls	r7, r5
10001bac:	19ff      	adds	r7, r7, r7
10001bae:	e7e0      	b.n	10001b72 <y64_x48+0xcc>

10001bb0 <y64_x64>:
10001bb0:	2400      	movs	r4, #0
10001bb2:	1c5d      	adds	r5, r3, #1
10001bb4:	d007      	beq.n	10001bc6 <y64_x64+0x16>
10001bb6:	4f14      	ldr	r7, [pc, #80]	; (10001c08 <y64_x64+0x58>)
10001bb8:	667d      	str	r5, [r7, #100]	; 0x64
10001bba:	6639      	str	r1, [r7, #96]	; 0x60
10001bbc:	e7ff      	b.n	10001bbe <y64_x64+0xe>
10001bbe:	e7ff      	b.n	10001bc0 <y64_x64+0x10>
10001bc0:	e7ff      	b.n	10001bc2 <y64_x64+0x12>
10001bc2:	e7ff      	b.n	10001bc4 <y64_x64+0x14>
10001bc4:	6f3c      	ldr	r4, [r7, #112]	; 0x70
10001bc6:	b295      	uxth	r5, r2
10001bc8:	b29e      	uxth	r6, r3
10001bca:	4365      	muls	r5, r4
10001bcc:	4366      	muls	r6, r4
10001bce:	1b40      	subs	r0, r0, r5
10001bd0:	41b1      	sbcs	r1, r6
10001bd2:	0c15      	lsrs	r5, r2, #16
10001bd4:	0c1e      	lsrs	r6, r3, #16
10001bd6:	4365      	muls	r5, r4
10001bd8:	4366      	muls	r6, r4
10001bda:	0436      	lsls	r6, r6, #16
10001bdc:	0c2f      	lsrs	r7, r5, #16
10001bde:	433e      	orrs	r6, r7
10001be0:	042d      	lsls	r5, r5, #16
10001be2:	1b40      	subs	r0, r0, r5
10001be4:	41b1      	sbcs	r1, r6
10001be6:	4299      	cmp	r1, r3
10001be8:	d204      	bcs.n	10001bf4 <y64_x64+0x44>
10001bea:	0002      	movs	r2, r0
10001bec:	000b      	movs	r3, r1
10001bee:	0020      	movs	r0, r4
10001bf0:	2100      	movs	r1, #0
10001bf2:	bdf0      	pop	{r4, r5, r6, r7, pc}
10001bf4:	d101      	bne.n	10001bfa <y64_x64+0x4a>
10001bf6:	4290      	cmp	r0, r2
10001bf8:	d3f7      	bcc.n	10001bea <y64_x64+0x3a>
10001bfa:	1a80      	subs	r0, r0, r2
10001bfc:	4199      	sbcs	r1, r3
10001bfe:	3401      	adds	r4, #1
10001c00:	4299      	cmp	r1, r3
10001c02:	d3f2      	bcc.n	10001bea <y64_x64+0x3a>
10001c04:	e7f6      	b.n	10001bf4 <y64_x64+0x44>
10001c06:	0000      	.short	0x0000
10001c08:	d0000000 	.word	0xd0000000
10001c0c:	ffffffff 	.word	0xffffffff

10001c10 <__wrap___aeabi_drsub>:
10001c10:	4048      	eors	r0, r1
10001c12:	4041      	eors	r1, r0
10001c14:	4048      	eors	r0, r1

10001c16 <__wrap___aeabi_dsub>:
10001c16:	b418      	push	{r3, r4}
10001c18:	4b1b      	ldr	r3, [pc, #108]	; (10001c88 <__wrap___aeabi_dmul+0x12>)
10001c1a:	685b      	ldr	r3, [r3, #4]
10001c1c:	46fc      	mov	ip, pc
10001c1e:	9301      	str	r3, [sp, #4]
10001c20:	bd08      	pop	{r3, pc}
10001c22:	df04      	.short	0xdf04
10001c24:	10001ee7 	.word	0x10001ee7

10001c28 <__wrap___aeabi_dadd>:
10001c28:	b418      	push	{r3, r4}
10001c2a:	4b17      	ldr	r3, [pc, #92]	; (10001c88 <__wrap___aeabi_dmul+0x12>)
10001c2c:	681b      	ldr	r3, [r3, #0]
10001c2e:	46fc      	mov	ip, pc
10001c30:	9301      	str	r3, [sp, #4]
10001c32:	bd08      	pop	{r3, pc}
10001c34:	1ef1df00 	.word	0x1ef1df00
10001c38:	1000      	.short	0x1000

10001c3a <__wrap___aeabi_ddiv>:
10001c3a:	4694      	mov	ip, r2
10001c3c:	4a13      	ldr	r2, [pc, #76]	; (10001c8c <__wrap___aeabi_dmul+0x16>)
10001c3e:	6f92      	ldr	r2, [r2, #120]	; 0x78
10001c40:	0892      	lsrs	r2, r2, #2
10001c42:	d209      	bcs.n	10001c58 <ddiv_save_state>
10001c44:	4662      	mov	r2, ip

10001c46 <ddiv_shim_call>:
10001c46:	b418      	push	{r3, r4}
10001c48:	4b0f      	ldr	r3, [pc, #60]	; (10001c88 <__wrap___aeabi_dmul+0x12>)
10001c4a:	68db      	ldr	r3, [r3, #12]
10001c4c:	46fc      	mov	ip, pc
10001c4e:	9301      	str	r3, [sp, #4]
10001c50:	bd08      	pop	{r3, pc}
10001c52:	df0c      	.short	0xdf0c
10001c54:	100021a9 	.word	0x100021a9

10001c58 <ddiv_save_state>:
10001c58:	4a0c      	ldr	r2, [pc, #48]	; (10001c8c <__wrap___aeabi_dmul+0x16>)
10001c5a:	b5f0      	push	{r4, r5, r6, r7, lr}
10001c5c:	6e14      	ldr	r4, [r2, #96]	; 0x60
10001c5e:	6e55      	ldr	r5, [r2, #100]	; 0x64
10001c60:	6f57      	ldr	r7, [r2, #116]	; 0x74
10001c62:	6f16      	ldr	r6, [r2, #112]	; 0x70
10001c64:	4662      	mov	r2, ip
10001c66:	f7ff ffee 	bl	10001c46 <ddiv_shim_call>
10001c6a:	4a08      	ldr	r2, [pc, #32]	; (10001c8c <__wrap___aeabi_dmul+0x16>)
10001c6c:	6614      	str	r4, [r2, #96]	; 0x60
10001c6e:	6655      	str	r5, [r2, #100]	; 0x64
10001c70:	6757      	str	r7, [r2, #116]	; 0x74
10001c72:	6716      	str	r6, [r2, #112]	; 0x70
10001c74:	bdf0      	pop	{r4, r5, r6, r7, pc}

10001c76 <__wrap___aeabi_dmul>:
10001c76:	b418      	push	{r3, r4}
10001c78:	4b03      	ldr	r3, [pc, #12]	; (10001c88 <__wrap___aeabi_dmul+0x12>)
10001c7a:	689b      	ldr	r3, [r3, #8]
10001c7c:	46fc      	mov	ip, pc
10001c7e:	9301      	str	r3, [sp, #4]
10001c80:	bd08      	pop	{r3, pc}
10001c82:	df08      	.short	0xdf08
10001c84:	1000204d 	.word	0x1000204d
10001c88:	200004c8 	.word	0x200004c8
10001c8c:	d0000000 	.word	0xd0000000

10001c90 <__wrap___aeabi_cdrcmple>:
10001c90:	b5ff      	push	{r0, r1, r2, r3, r4, r5, r6, r7, lr}
10001c92:	4050      	eors	r0, r2
10001c94:	4042      	eors	r2, r0
10001c96:	4050      	eors	r0, r2
10001c98:	4059      	eors	r1, r3
10001c9a:	404b      	eors	r3, r1
10001c9c:	4059      	eors	r1, r3
10001c9e:	e000      	b.n	10001ca2 <__aeabi_dfcmple_guts>

10001ca0 <__wrap___aeabi_cdcmpeq>:
10001ca0:	b5ff      	push	{r0, r1, r2, r3, r4, r5, r6, r7, lr}

10001ca2 <__aeabi_dfcmple_guts>:
10001ca2:	4f15      	ldr	r7, [pc, #84]	; (10001cf8 <__aeabi_dfcmple_guts+0x56>)
10001ca4:	004c      	lsls	r4, r1, #1
10001ca6:	0d64      	lsrs	r4, r4, #21
10001ca8:	d003      	beq.n	10001cb2 <__aeabi_dfcmple_guts+0x10>
10001caa:	42bc      	cmp	r4, r7
10001cac:	d104      	bne.n	10001cb8 <__aeabi_dfcmple_guts+0x16>
10001cae:	030c      	lsls	r4, r1, #12
10001cb0:	d814      	bhi.n	10001cdc <__aeabi_dfcmple_guts+0x3a>
10001cb2:	2000      	movs	r0, #0
10001cb4:	0d09      	lsrs	r1, r1, #20
10001cb6:	0509      	lsls	r1, r1, #20
10001cb8:	005c      	lsls	r4, r3, #1
10001cba:	0d64      	lsrs	r4, r4, #21
10001cbc:	d003      	beq.n	10001cc6 <__aeabi_dfcmple_guts+0x24>
10001cbe:	42bc      	cmp	r4, r7
10001cc0:	d104      	bne.n	10001ccc <__aeabi_dfcmple_guts+0x2a>
10001cc2:	031c      	lsls	r4, r3, #12
10001cc4:	d80a      	bhi.n	10001cdc <__aeabi_dfcmple_guts+0x3a>
10001cc6:	2200      	movs	r2, #0
10001cc8:	0d1b      	lsrs	r3, r3, #20
10001cca:	051b      	lsls	r3, r3, #20
10001ccc:	2601      	movs	r6, #1
10001cce:	404b      	eors	r3, r1
10001cd0:	d409      	bmi.n	10001ce6 <__aeabi_dfcmple_guts+0x44>
10001cd2:	404b      	eors	r3, r1
10001cd4:	d503      	bpl.n	10001cde <__aeabi_dfcmple_guts+0x3c>
10001cd6:	428b      	cmp	r3, r1
10001cd8:	d100      	bne.n	10001cdc <__aeabi_dfcmple_guts+0x3a>
10001cda:	4282      	cmp	r2, r0
10001cdc:	bdff      	pop	{r0, r1, r2, r3, r4, r5, r6, r7, pc}
10001cde:	4299      	cmp	r1, r3
10001ce0:	d1fc      	bne.n	10001cdc <__aeabi_dfcmple_guts+0x3a>
10001ce2:	4290      	cmp	r0, r2
10001ce4:	bdff      	pop	{r0, r1, r2, r3, r4, r5, r6, r7, pc}
10001ce6:	430b      	orrs	r3, r1
10001ce8:	18db      	adds	r3, r3, r3
10001cea:	4303      	orrs	r3, r0
10001cec:	4313      	orrs	r3, r2
10001cee:	d0f5      	beq.n	10001cdc <__aeabi_dfcmple_guts+0x3a>
10001cf0:	43c9      	mvns	r1, r1
10001cf2:	1849      	adds	r1, r1, r1
10001cf4:	bdff      	pop	{r0, r1, r2, r3, r4, r5, r6, r7, pc}
10001cf6:	0000      	.short	0x0000
10001cf8:	000007ff 	.word	0x000007ff

10001cfc <__wrap___aeabi_dcmplt>:
10001cfc:	b500      	push	{lr}
10001cfe:	f7ff ffcf 	bl	10001ca0 <__wrap___aeabi_cdcmpeq>
10001d02:	4180      	sbcs	r0, r0
10001d04:	bd00      	pop	{pc}
10001d06:	46c0      	nop			; (mov r8, r8)

10001d08 <__wrap___aeabi_dcmple>:
10001d08:	b500      	push	{lr}
10001d0a:	f7ff ffc9 	bl	10001ca0 <__wrap___aeabi_cdcmpeq>
10001d0e:	d901      	bls.n	10001d14 <__wrap___aeabi_dcmple+0xc>
10001d10:	2000      	movs	r0, #0
10001d12:	bd00      	pop	{pc}
10001d14:	2001      	movs	r0, #1
10001d16:	bd00      	pop	{pc}

10001d18 <__wrap___aeabi_dcmpge>:
10001d18:	b500      	push	{lr}
10001d1a:	f7ff ffb9 	bl	10001c90 <__wrap___aeabi_cdrcmple>
10001d1e:	d901      	bls.n	10001d24 <__wrap___aeabi_dcmpge+0xc>
10001d20:	2000      	movs	r0, #0
10001d22:	bd00      	pop	{pc}
10001d24:	2001      	movs	r0, #1
10001d26:	bd00      	pop	{pc}

10001d28 <__wrap___aeabi_dcmpgt>:
10001d28:	b500      	push	{lr}
10001d2a:	f7ff ffb1 	bl	10001c90 <__wrap___aeabi_cdrcmple>
10001d2e:	4180      	sbcs	r0, r0
10001d30:	bd00      	pop	{pc}

10001d32 <__wrap___aeabi_dcmpun>:
10001d32:	2001      	movs	r0, #1
10001d34:	0540      	lsls	r0, r0, #21
10001d36:	004a      	lsls	r2, r1, #1
10001d38:	1812      	adds	r2, r2, r0
10001d3a:	d804      	bhi.n	10001d46 <__wrap___aeabi_dcmpun+0x14>
10001d3c:	005a      	lsls	r2, r3, #1
10001d3e:	1812      	adds	r2, r2, r0
10001d40:	d801      	bhi.n	10001d46 <__wrap___aeabi_dcmpun+0x14>
10001d42:	2000      	movs	r0, #0
10001d44:	4770      	bx	lr
10001d46:	2001      	movs	r0, #1
10001d48:	4770      	bx	lr
	...

10001d4c <__wrap___aeabi_ui2d>:
10001d4c:	2100      	movs	r1, #0
10001d4e:	2800      	cmp	r0, #0
10001d50:	d105      	bne.n	10001d5e <__wrap___aeabi_i2d+0xa>
10001d52:	4770      	bx	lr

10001d54 <__wrap___aeabi_i2d>:
10001d54:	17c1      	asrs	r1, r0, #31
10001d56:	4048      	eors	r0, r1
10001d58:	1a40      	subs	r0, r0, r1
10001d5a:	d0fa      	beq.n	10001d52 <__wrap___aeabi_ui2d+0x6>
10001d5c:	07c9      	lsls	r1, r1, #31
10001d5e:	b513      	push	{r0, r1, r4, lr}
10001d60:	4b06      	ldr	r3, [pc, #24]	; (10001d7c <__wrap___aeabi_i2d+0x28>)
10001d62:	681b      	ldr	r3, [r3, #0]
10001d64:	4798      	blx	r3
10001d66:	bc0c      	pop	{r2, r3}
10001d68:	1c44      	adds	r4, r0, #1
10001d6a:	40a2      	lsls	r2, r4
10001d6c:	0510      	lsls	r0, r2, #20
10001d6e:	0b12      	lsrs	r2, r2, #12
10001d70:	4903      	ldr	r1, [pc, #12]	; (10001d80 <__wrap___aeabi_i2d+0x2c>)
10001d72:	1b09      	subs	r1, r1, r4
10001d74:	0509      	lsls	r1, r1, #20
10001d76:	4319      	orrs	r1, r3
10001d78:	4311      	orrs	r1, r2
10001d7a:	bd10      	pop	{r4, pc}
10001d7c:	200005c8 	.word	0x200005c8
10001d80:	0000041f 	.word	0x0000041f

10001d84 <__wrap___aeabi_d2iz>:
10001d84:	b510      	push	{r4, lr}
10001d86:	004c      	lsls	r4, r1, #1
10001d88:	0d62      	lsrs	r2, r4, #21
10001d8a:	2380      	movs	r3, #128	; 0x80
10001d8c:	18d2      	adds	r2, r2, r3
10001d8e:	00db      	lsls	r3, r3, #3
10001d90:	1ad2      	subs	r2, r2, r3
10001d92:	055b      	lsls	r3, r3, #21
10001d94:	2a7e      	cmp	r2, #126	; 0x7e
10001d96:	dd10      	ble.n	10001dba <__wrap___aeabi_d2iz+0x36>
10001d98:	3a9e      	subs	r2, #158	; 0x9e
10001d9a:	da13      	bge.n	10001dc4 <__wrap___aeabi_d2iz+0x40>
10001d9c:	17cc      	asrs	r4, r1, #31
10001d9e:	0309      	lsls	r1, r1, #12
10001da0:	0849      	lsrs	r1, r1, #1
10001da2:	4319      	orrs	r1, r3
10001da4:	4252      	negs	r2, r2
10001da6:	40d1      	lsrs	r1, r2
10001da8:	0064      	lsls	r4, r4, #1
10001daa:	3401      	adds	r4, #1
10001dac:	3215      	adds	r2, #21
10001dae:	2a20      	cmp	r2, #32
10001db0:	da05      	bge.n	10001dbe <__wrap___aeabi_d2iz+0x3a>
10001db2:	40d0      	lsrs	r0, r2
10001db4:	4308      	orrs	r0, r1
10001db6:	4360      	muls	r0, r4
10001db8:	bd10      	pop	{r4, pc}
10001dba:	2000      	movs	r0, #0
10001dbc:	bd10      	pop	{r4, pc}
10001dbe:	4608      	mov	r0, r1
10001dc0:	4360      	muls	r0, r4
10001dc2:	bd10      	pop	{r4, pc}
10001dc4:	0fc8      	lsrs	r0, r1, #31
10001dc6:	18c0      	adds	r0, r0, r3
10001dc8:	3801      	subs	r0, #1
10001dca:	bd10      	pop	{r4, pc}

10001dcc <__wrap___aeabi_d2uiz>:
10001dcc:	b418      	push	{r3, r4}
10001dce:	4b04      	ldr	r3, [pc, #16]	; (10001de0 <__wrap___aeabi_d2uiz+0x14>)
10001dd0:	6a5b      	ldr	r3, [r3, #36]	; 0x24
10001dd2:	46fc      	mov	ip, pc
10001dd4:	9301      	str	r3, [sp, #4]
10001dd6:	bd08      	pop	{r3, pc}
10001dd8:	2359df24 	.word	0x2359df24
10001ddc:	00001000 	.word	0x00001000
10001de0:	200004c8 	.word	0x200004c8

10001de4 <__aeabi_double_init>:
10001de4:	b570      	push	{r4, r5, r6, lr}
10001de6:	2313      	movs	r3, #19
10001de8:	781c      	ldrb	r4, [r3, #0]
10001dea:	2c01      	cmp	r4, #1
10001dec:	d014      	beq.n	10001e18 <__aeabi_double_init+0x34>
10001dee:	2c01      	cmp	r4, #1
10001df0:	dc14      	bgt.n	10001e1c <__aeabi_double_init+0x38>
10001df2:	2c02      	cmp	r4, #2
10001df4:	dc02      	bgt.n	10001dfc <__aeabi_double_init+0x18>
10001df6:	4a1f      	ldr	r2, [pc, #124]	; (10001e74 <__aeabi_double_init+0x90>)
10001df8:	4b1f      	ldr	r3, [pc, #124]	; (10001e78 <__aeabi_double_init+0x94>)
10001dfa:	649a      	str	r2, [r3, #72]	; 0x48
10001dfc:	481f      	ldr	r0, [pc, #124]	; (10001e7c <__aeabi_double_init+0x98>)
10001dfe:	f7ff fc7b 	bl	100016f8 <rom_func_lookup>
10001e02:	4b1f      	ldr	r3, [pc, #124]	; (10001e80 <__aeabi_double_init+0x9c>)
10001e04:	6018      	str	r0, [r3, #0]
10001e06:	bd70      	pop	{r4, r5, r6, pc}
10001e08:	0099      	lsls	r1, r3, #2
10001e0a:	481a      	ldr	r0, [pc, #104]	; (10001e74 <__aeabi_double_init+0x90>)
10001e0c:	4a1a      	ldr	r2, [pc, #104]	; (10001e78 <__aeabi_double_init+0x94>)
10001e0e:	5088      	str	r0, [r1, r2]
10001e10:	3301      	adds	r3, #1
10001e12:	2b1f      	cmp	r3, #31
10001e14:	d9f8      	bls.n	10001e08 <__aeabi_double_init+0x24>
10001e16:	e7ea      	b.n	10001dee <__aeabi_double_init+0xa>
10001e18:	2300      	movs	r3, #0
10001e1a:	e7fa      	b.n	10001e12 <__aeabi_double_init+0x2e>
10001e1c:	4819      	ldr	r0, [pc, #100]	; (10001e84 <__aeabi_double_init+0xa0>)
10001e1e:	f7ff fc73 	bl	10001708 <rom_data_lookup>
10001e22:	0005      	movs	r5, r0
10001e24:	4818      	ldr	r0, [pc, #96]	; (10001e88 <__aeabi_double_init+0xa4>)
10001e26:	f7ff fc6f 	bl	10001708 <rom_data_lookup>
10001e2a:	3802      	subs	r0, #2
10001e2c:	7803      	ldrb	r3, [r0, #0]
10001e2e:	009b      	lsls	r3, r3, #2
10001e30:	2b7f      	cmp	r3, #127	; 0x7f
10001e32:	dd19      	ble.n	10001e68 <__aeabi_double_init+0x84>
10001e34:	2280      	movs	r2, #128	; 0x80
10001e36:	0029      	movs	r1, r5
10001e38:	480f      	ldr	r0, [pc, #60]	; (10001e78 <__aeabi_double_init+0x94>)
10001e3a:	f000 fc25 	bl	10002688 <__wrap___aeabi_memcpy>
10001e3e:	2c02      	cmp	r4, #2
10001e40:	d1d7      	bne.n	10001df2 <__aeabi_double_init+0xe>
10001e42:	4b12      	ldr	r3, [pc, #72]	; (10001e8c <__aeabi_double_init+0xa8>)
10001e44:	881a      	ldrh	r2, [r3, #0]
10001e46:	23b5      	movs	r3, #181	; 0xb5
10001e48:	021b      	lsls	r3, r3, #8
10001e4a:	429a      	cmp	r2, r3
10001e4c:	d109      	bne.n	10001e62 <__aeabi_double_init+0x7e>
10001e4e:	4b10      	ldr	r3, [pc, #64]	; (10001e90 <__aeabi_double_init+0xac>)
10001e50:	881a      	ldrh	r2, [r3, #0]
10001e52:	4b10      	ldr	r3, [pc, #64]	; (10001e94 <__aeabi_double_init+0xb0>)
10001e54:	429a      	cmp	r2, r3
10001e56:	d104      	bne.n	10001e62 <__aeabi_double_init+0x7e>
10001e58:	4b0f      	ldr	r3, [pc, #60]	; (10001e98 <__aeabi_double_init+0xb4>)
10001e5a:	881a      	ldrh	r2, [r3, #0]
10001e5c:	4b0f      	ldr	r3, [pc, #60]	; (10001e9c <__aeabi_double_init+0xb8>)
10001e5e:	429a      	cmp	r2, r3
10001e60:	d0c7      	beq.n	10001df2 <__aeabi_double_init+0xe>
10001e62:	2000      	movs	r0, #0
10001e64:	f7fe fb38 	bl	100004d8 <panic>
10001e68:	4b0d      	ldr	r3, [pc, #52]	; (10001ea0 <__aeabi_double_init+0xbc>)
10001e6a:	4a0e      	ldr	r2, [pc, #56]	; (10001ea4 <__aeabi_double_init+0xc0>)
10001e6c:	2133      	movs	r1, #51	; 0x33
10001e6e:	480e      	ldr	r0, [pc, #56]	; (10001ea8 <__aeabi_double_init+0xc4>)
10001e70:	f001 fcb6 	bl	100037e0 <__assert_func>
10001e74:	10001ead 	.word	0x10001ead
10001e78:	200004c8 	.word	0x200004c8
10001e7c:	0000334c 	.word	0x0000334c
10001e80:	200005c8 	.word	0x200005c8
10001e84:	00004453 	.word	0x00004453
10001e88:	00004653 	.word	0x00004653
10001e8c:	00003854 	.word	0x00003854
10001e90:	000038d8 	.word	0x000038d8
10001e94:	00004649 	.word	0x00004649
10001e98:	0000389c 	.word	0x0000389c
10001e9c:	00004659 	.word	0x00004659
10001ea0:	100043b0 	.word	0x100043b0
10001ea4:	10004454 	.word	0x10004454
10001ea8:	100043f4 	.word	0x100043f4

10001eac <double_table_shim_on_use_helper>:
10001eac:	b507      	push	{r0, r1, r2, lr}
10001eae:	4660      	mov	r0, ip
10001eb0:	2800      	cmp	r0, #0
10001eb2:	d100      	bne.n	10001eb6 <double_table_shim_on_use_helper+0xa>
10001eb4:	be00      	bkpt	0x0000
10001eb6:	8801      	ldrh	r1, [r0, #0]
10001eb8:	0a0a      	lsrs	r2, r1, #8
10001eba:	3002      	adds	r0, #2
10001ebc:	2adf      	cmp	r2, #223	; 0xdf
10001ebe:	d1fa      	bne.n	10001eb6 <double_table_shim_on_use_helper+0xa>
10001ec0:	b2c9      	uxtb	r1, r1
10001ec2:	0882      	lsrs	r2, r0, #2
10001ec4:	d304      	bcc.n	10001ed0 <double_table_shim_on_use_helper+0x24>
10001ec6:	8802      	ldrh	r2, [r0, #0]
10001ec8:	8840      	ldrh	r0, [r0, #2]
10001eca:	0400      	lsls	r0, r0, #16
10001ecc:	4310      	orrs	r0, r2
10001ece:	e000      	b.n	10001ed2 <double_table_shim_on_use_helper+0x26>
10001ed0:	6800      	ldr	r0, [r0, #0]
10001ed2:	4a02      	ldr	r2, [pc, #8]	; (10001edc <double_table_shim_on_use_helper+0x30>)
10001ed4:	5050      	str	r0, [r2, r1]
10001ed6:	9003      	str	r0, [sp, #12]
10001ed8:	bd07      	pop	{r0, r1, r2, pc}
10001eda:	0000      	.short	0x0000
10001edc:	200004c8 	.word	0x200004c8

10001ee0 <drsub_shim>:
10001ee0:	b40f      	push	{r0, r1, r2, r3}
10001ee2:	bc03      	pop	{r0, r1}
10001ee4:	bc0c      	pop	{r2, r3}

10001ee6 <dsub_shim>:
10001ee6:	b5f0      	push	{r4, r5, r6, r7, lr}
10001ee8:	2401      	movs	r4, #1
10001eea:	07e4      	lsls	r4, r4, #31
10001eec:	4063      	eors	r3, r4
10001eee:	e000      	b.n	10001ef2 <da_entry>

10001ef0 <dadd_shim>:
10001ef0:	b5f0      	push	{r4, r5, r6, r7, lr}

10001ef2 <da_entry>:
10001ef2:	0d0c      	lsrs	r4, r1, #20
10001ef4:	0fcf      	lsrs	r7, r1, #31
10001ef6:	1e66      	subs	r6, r4, #1
10001ef8:	0536      	lsls	r6, r6, #20
10001efa:	1b89      	subs	r1, r1, r6
10001efc:	0564      	lsls	r4, r4, #21
10001efe:	d303      	bcc.n	10001f08 <l8_1>
10001f00:	43c9      	mvns	r1, r1
10001f02:	4240      	negs	r0, r0
10001f04:	d300      	bcc.n	10001f08 <l8_1>
10001f06:	3101      	adds	r1, #1

10001f08 <l8_1>:
10001f08:	0d64      	lsrs	r4, r4, #21
10001f0a:	d003      	beq.n	10001f14 <l8_2>
10001f0c:	1c66      	adds	r6, r4, #1
10001f0e:	0af6      	lsrs	r6, r6, #11
10001f10:	d007      	beq.n	10001f22 <l8_3>
10001f12:	1be4      	subs	r4, r4, r7

10001f14 <l8_2>:
10001f14:	2000      	movs	r0, #0
10001f16:	007f      	lsls	r7, r7, #1
10001f18:	1c79      	adds	r1, r7, #1
10001f1a:	0789      	lsls	r1, r1, #30
10001f1c:	1289      	asrs	r1, r1, #10
10001f1e:	3c80      	subs	r4, #128	; 0x80
10001f20:	0324      	lsls	r4, r4, #12

10001f22 <l8_3>:
10001f22:	0d1d      	lsrs	r5, r3, #20
10001f24:	0fdf      	lsrs	r7, r3, #31
10001f26:	1e6e      	subs	r6, r5, #1
10001f28:	0536      	lsls	r6, r6, #20
10001f2a:	1b9b      	subs	r3, r3, r6
10001f2c:	056d      	lsls	r5, r5, #21
10001f2e:	d303      	bcc.n	10001f38 <l9_1>
10001f30:	43db      	mvns	r3, r3
10001f32:	4252      	negs	r2, r2
10001f34:	d300      	bcc.n	10001f38 <l9_1>
10001f36:	3301      	adds	r3, #1

10001f38 <l9_1>:
10001f38:	0d6d      	lsrs	r5, r5, #21
10001f3a:	d003      	beq.n	10001f44 <l9_2>
10001f3c:	1c6e      	adds	r6, r5, #1
10001f3e:	0af6      	lsrs	r6, r6, #11
10001f40:	d007      	beq.n	10001f52 <l9_3>
10001f42:	1bed      	subs	r5, r5, r7

10001f44 <l9_2>:
10001f44:	2200      	movs	r2, #0
10001f46:	007f      	lsls	r7, r7, #1
10001f48:	1c7b      	adds	r3, r7, #1
10001f4a:	079b      	lsls	r3, r3, #30
10001f4c:	129b      	asrs	r3, r3, #10
10001f4e:	3d80      	subs	r5, #128	; 0x80
10001f50:	032d      	lsls	r5, r5, #12

10001f52 <l9_3>:
10001f52:	1b2f      	subs	r7, r5, r4
10001f54:	1b66      	subs	r6, r4, r5
10001f56:	d458      	bmi.n	1000200a <da_ygtx>
10001f58:	46a4      	mov	ip, r4
10001f5a:	2e20      	cmp	r6, #32
10001f5c:	da46      	bge.n	10001fec <da_xrgty>
10001f5e:	3720      	adds	r7, #32
10001f60:	0014      	movs	r4, r2
10001f62:	40bc      	lsls	r4, r7

10001f64 <da_xgty0>:
10001f64:	001d      	movs	r5, r3
10001f66:	40bd      	lsls	r5, r7
10001f68:	40f2      	lsrs	r2, r6
10001f6a:	4133      	asrs	r3, r6
10001f6c:	432a      	orrs	r2, r5

10001f6e <da_add>:
10001f6e:	1880      	adds	r0, r0, r2
10001f70:	4159      	adcs	r1, r3

10001f72 <da_pack>:
10001f72:	0fcb      	lsrs	r3, r1, #31
10001f74:	d005      	beq.n	10001f82 <da_pack+0x10>
10001f76:	43c9      	mvns	r1, r1
10001f78:	43c0      	mvns	r0, r0
10001f7a:	2200      	movs	r2, #0
10001f7c:	4264      	negs	r4, r4
10001f7e:	4150      	adcs	r0, r2
10001f80:	4151      	adcs	r1, r2
10001f82:	4662      	mov	r2, ip
10001f84:	0d4d      	lsrs	r5, r1, #21
10001f86:	d128      	bne.n	10001fda <da_0>
10001f88:	0d0d      	lsrs	r5, r1, #20
10001f8a:	d107      	bne.n	10001f9c <da_1>
10001f8c:	2800      	cmp	r0, #0
10001f8e:	d01f      	beq.n	10001fd0 <da_5>

10001f90 <da_2>:
10001f90:	1924      	adds	r4, r4, r4
10001f92:	4140      	adcs	r0, r0
10001f94:	4149      	adcs	r1, r1
10001f96:	3a01      	subs	r2, #1
10001f98:	0d0d      	lsrs	r5, r1, #20
10001f9a:	d0f9      	beq.n	10001f90 <da_2>

10001f9c <da_1>:
10001f9c:	0064      	lsls	r4, r4, #1
10001f9e:	d306      	bcc.n	10001fae <da_3>

10001fa0 <da_4>:
10001fa0:	3001      	adds	r0, #1
10001fa2:	d300      	bcc.n	10001fa6 <da_4+0x6>
10001fa4:	3101      	adds	r1, #1
10001fa6:	2c00      	cmp	r4, #0
10001fa8:	d101      	bne.n	10001fae <da_3>
10001faa:	0840      	lsrs	r0, r0, #1
10001fac:	0040      	lsls	r0, r0, #1

10001fae <da_3>:
10001fae:	3a01      	subs	r2, #1
10001fb0:	d40b      	bmi.n	10001fca <da_6>
10001fb2:	1c94      	adds	r4, r2, #2
10001fb4:	0ae4      	lsrs	r4, r4, #11
10001fb6:	d104      	bne.n	10001fc2 <da_7>
10001fb8:	0512      	lsls	r2, r2, #20
10001fba:	4411      	add	r1, r2
10001fbc:	07db      	lsls	r3, r3, #31
10001fbe:	4419      	add	r1, r3
10001fc0:	bdf0      	pop	{r4, r5, r6, r7, pc}

10001fc2 <da_7>:
10001fc2:	07d9      	lsls	r1, r3, #31
10001fc4:	4b20      	ldr	r3, [pc, #128]	; (10002048 <da_xmgty+0x4>)
10001fc6:	4319      	orrs	r1, r3
10001fc8:	e000      	b.n	10001fcc <da_6+0x2>

10001fca <da_6>:
10001fca:	07d9      	lsls	r1, r3, #31
10001fcc:	2000      	movs	r0, #0
10001fce:	bdf0      	pop	{r4, r5, r6, r7, pc}

10001fd0 <da_5>:
10001fd0:	2900      	cmp	r1, #0
10001fd2:	d1dd      	bne.n	10001f90 <da_2>
10001fd4:	2c00      	cmp	r4, #0
10001fd6:	d1db      	bne.n	10001f90 <da_2>
10001fd8:	bdf0      	pop	{r4, r5, r6, r7, pc}

10001fda <da_0>:
10001fda:	3201      	adds	r2, #1
10001fdc:	07c6      	lsls	r6, r0, #31
10001fde:	0840      	lsrs	r0, r0, #1
10001fe0:	07cd      	lsls	r5, r1, #31
10001fe2:	4328      	orrs	r0, r5
10001fe4:	0849      	lsrs	r1, r1, #1
10001fe6:	2e00      	cmp	r6, #0
10001fe8:	d0e1      	beq.n	10001fae <da_3>
10001fea:	e7d9      	b.n	10001fa0 <da_4>

10001fec <da_xrgty>:
10001fec:	2e3c      	cmp	r6, #60	; 0x3c
10001fee:	da29      	bge.n	10002044 <da_xmgty>
10001ff0:	3e20      	subs	r6, #32
10001ff2:	3740      	adds	r7, #64	; 0x40
10001ff4:	0014      	movs	r4, r2
10001ff6:	40bc      	lsls	r4, r7
10001ff8:	d000      	beq.n	10001ffc <da_xrgty+0x10>
10001ffa:	2401      	movs	r4, #1
10001ffc:	40f2      	lsrs	r2, r6
10001ffe:	4314      	orrs	r4, r2
10002000:	001a      	movs	r2, r3
10002002:	40bb      	lsls	r3, r7
10002004:	431c      	orrs	r4, r3
10002006:	17d3      	asrs	r3, r2, #31
10002008:	e7ac      	b.n	10001f64 <da_xgty0>

1000200a <da_ygtx>:
1000200a:	46ac      	mov	ip, r5
1000200c:	2f20      	cmp	r7, #32
1000200e:	da08      	bge.n	10002022 <da_yrgtx>
10002010:	3620      	adds	r6, #32
10002012:	0004      	movs	r4, r0
10002014:	40b4      	lsls	r4, r6

10002016 <da_ygtx0>:
10002016:	000d      	movs	r5, r1
10002018:	40b5      	lsls	r5, r6
1000201a:	40f8      	lsrs	r0, r7
1000201c:	4139      	asrs	r1, r7
1000201e:	4328      	orrs	r0, r5
10002020:	e7a5      	b.n	10001f6e <da_add>

10002022 <da_yrgtx>:
10002022:	2f3c      	cmp	r7, #60	; 0x3c
10002024:	da0c      	bge.n	10002040 <da_ymgtx>
10002026:	3f20      	subs	r7, #32
10002028:	3640      	adds	r6, #64	; 0x40
1000202a:	0004      	movs	r4, r0
1000202c:	40b4      	lsls	r4, r6
1000202e:	d000      	beq.n	10002032 <da_yrgtx+0x10>
10002030:	2401      	movs	r4, #1
10002032:	40f8      	lsrs	r0, r7
10002034:	4304      	orrs	r4, r0
10002036:	0008      	movs	r0, r1
10002038:	40b1      	lsls	r1, r6
1000203a:	430c      	orrs	r4, r1
1000203c:	17c1      	asrs	r1, r0, #31
1000203e:	e7ea      	b.n	10002016 <da_ygtx0>

10002040 <da_ymgtx>:
10002040:	0010      	movs	r0, r2
10002042:	0019      	movs	r1, r3

10002044 <da_xmgty>:
10002044:	2400      	movs	r4, #0
10002046:	e794      	b.n	10001f72 <da_pack>
10002048:	7ff00000 	.word	0x7ff00000

1000204c <dmul_shim>:
1000204c:	b5f0      	push	{r4, r5, r6, r7, lr}
1000204e:	0d0c      	lsrs	r4, r1, #20
10002050:	1e66      	subs	r6, r4, #1
10002052:	0536      	lsls	r6, r6, #20
10002054:	1b89      	subs	r1, r1, r6
10002056:	0ae6      	lsrs	r6, r4, #11
10002058:	0564      	lsls	r4, r4, #21
1000205a:	0d64      	lsrs	r4, r4, #21
1000205c:	d002      	beq.n	10002064 <l12_1>
1000205e:	1c65      	adds	r5, r4, #1
10002060:	0aed      	lsrs	r5, r5, #11
10002062:	d004      	beq.n	1000206e <l12_2>

10002064 <l12_1>:
10002064:	2000      	movs	r0, #0
10002066:	2101      	movs	r1, #1
10002068:	0509      	lsls	r1, r1, #20
1000206a:	3c80      	subs	r4, #128	; 0x80
1000206c:	0324      	lsls	r4, r4, #12

1000206e <l12_2>:
1000206e:	46a4      	mov	ip, r4
10002070:	0d1c      	lsrs	r4, r3, #20
10002072:	1e67      	subs	r7, r4, #1
10002074:	053f      	lsls	r7, r7, #20
10002076:	1bdb      	subs	r3, r3, r7
10002078:	0ae7      	lsrs	r7, r4, #11
1000207a:	0564      	lsls	r4, r4, #21
1000207c:	0d64      	lsrs	r4, r4, #21
1000207e:	d002      	beq.n	10002086 <l13_1>
10002080:	1c65      	adds	r5, r4, #1
10002082:	0aed      	lsrs	r5, r5, #11
10002084:	d004      	beq.n	10002090 <l13_2>

10002086 <l13_1>:
10002086:	2200      	movs	r2, #0
10002088:	2301      	movs	r3, #1
1000208a:	051b      	lsls	r3, r3, #20
1000208c:	3c80      	subs	r4, #128	; 0x80
1000208e:	0324      	lsls	r4, r4, #12

10002090 <l13_2>:
10002090:	4077      	eors	r7, r6
10002092:	4464      	add	r4, ip
10002094:	b497      	push	{r0, r1, r2, r4, r7}
10002096:	b284      	uxth	r4, r0
10002098:	b296      	uxth	r6, r2
1000209a:	4374      	muls	r4, r6
1000209c:	0c07      	lsrs	r7, r0, #16
1000209e:	437e      	muls	r6, r7
100020a0:	0c15      	lsrs	r5, r2, #16
100020a2:	436f      	muls	r7, r5
100020a4:	b280      	uxth	r0, r0
100020a6:	4368      	muls	r0, r5
100020a8:	1836      	adds	r6, r6, r0
100020aa:	d302      	bcc.n	100020b2 <l14_1>
100020ac:	2001      	movs	r0, #1
100020ae:	0400      	lsls	r0, r0, #16
100020b0:	183f      	adds	r7, r7, r0

100020b2 <l14_1>:
100020b2:	0430      	lsls	r0, r6, #16
100020b4:	0c35      	lsrs	r5, r6, #16
100020b6:	1900      	adds	r0, r0, r4
100020b8:	417d      	adcs	r5, r7
100020ba:	4684      	mov	ip, r0
100020bc:	b288      	uxth	r0, r1
100020be:	b29a      	uxth	r2, r3
100020c0:	4350      	muls	r0, r2
100020c2:	0c0c      	lsrs	r4, r1, #16
100020c4:	4362      	muls	r2, r4
100020c6:	0c1f      	lsrs	r7, r3, #16
100020c8:	437c      	muls	r4, r7
100020ca:	b28e      	uxth	r6, r1
100020cc:	437e      	muls	r6, r7
100020ce:	1992      	adds	r2, r2, r6
100020d0:	d302      	bcc.n	100020d8 <l15_1>
100020d2:	2601      	movs	r6, #1
100020d4:	0436      	lsls	r6, r6, #16
100020d6:	19a4      	adds	r4, r4, r6

100020d8 <l15_1>:
100020d8:	0416      	lsls	r6, r2, #16
100020da:	0c17      	lsrs	r7, r2, #16
100020dc:	1836      	adds	r6, r6, r0
100020de:	4167      	adcs	r7, r4
100020e0:	bc01      	pop	{r0}
100020e2:	b281      	uxth	r1, r0
100020e4:	b29a      	uxth	r2, r3
100020e6:	4351      	muls	r1, r2
100020e8:	0c04      	lsrs	r4, r0, #16
100020ea:	4362      	muls	r2, r4
100020ec:	0c1b      	lsrs	r3, r3, #16
100020ee:	435c      	muls	r4, r3
100020f0:	b280      	uxth	r0, r0
100020f2:	4358      	muls	r0, r3
100020f4:	1812      	adds	r2, r2, r0
100020f6:	d302      	bcc.n	100020fe <l16_1>
100020f8:	2001      	movs	r0, #1
100020fa:	0400      	lsls	r0, r0, #16
100020fc:	1824      	adds	r4, r4, r0

100020fe <l16_1>:
100020fe:	0410      	lsls	r0, r2, #16
10002100:	0c13      	lsrs	r3, r2, #16
10002102:	1840      	adds	r0, r0, r1
10002104:	4163      	adcs	r3, r4
10002106:	182d      	adds	r5, r5, r0
10002108:	415e      	adcs	r6, r3
1000210a:	2000      	movs	r0, #0
1000210c:	4147      	adcs	r7, r0
1000210e:	bc06      	pop	{r1, r2}
10002110:	b288      	uxth	r0, r1
10002112:	b293      	uxth	r3, r2
10002114:	4358      	muls	r0, r3
10002116:	0c0c      	lsrs	r4, r1, #16
10002118:	4363      	muls	r3, r4
1000211a:	0c12      	lsrs	r2, r2, #16
1000211c:	4354      	muls	r4, r2
1000211e:	b289      	uxth	r1, r1
10002120:	4351      	muls	r1, r2
10002122:	185b      	adds	r3, r3, r1
10002124:	d302      	bcc.n	1000212c <l17_1>
10002126:	2101      	movs	r1, #1
10002128:	0409      	lsls	r1, r1, #16
1000212a:	1864      	adds	r4, r4, r1

1000212c <l17_1>:
1000212c:	0419      	lsls	r1, r3, #16
1000212e:	0c1a      	lsrs	r2, r3, #16
10002130:	1809      	adds	r1, r1, r0
10002132:	4162      	adcs	r2, r4
10002134:	186d      	adds	r5, r5, r1
10002136:	4156      	adcs	r6, r2
10002138:	2000      	movs	r0, #0
1000213a:	4147      	adcs	r7, r0
1000213c:	bc18      	pop	{r3, r4}
1000213e:	02f9      	lsls	r1, r7, #11
10002140:	0d72      	lsrs	r2, r6, #21
10002142:	4311      	orrs	r1, r2
10002144:	02f0      	lsls	r0, r6, #11
10002146:	0d6a      	lsrs	r2, r5, #21
10002148:	4310      	orrs	r0, r2
1000214a:	02ed      	lsls	r5, r5, #11
1000214c:	0d0a      	lsrs	r2, r1, #20
1000214e:	d103      	bne.n	10002158 <l17_1+0x2c>
10002150:	196d      	adds	r5, r5, r5
10002152:	4140      	adcs	r0, r0
10002154:	4149      	adcs	r1, r1
10002156:	3b01      	subs	r3, #1
10002158:	4e12      	ldr	r6, [pc, #72]	; (100021a4 <dm_1+0xa>)
1000215a:	1b9b      	subs	r3, r3, r6
1000215c:	0076      	lsls	r6, r6, #1
1000215e:	42b3      	cmp	r3, r6
10002160:	d20e      	bcs.n	10002180 <dm_0>
10002162:	006d      	lsls	r5, r5, #1
10002164:	d307      	bcc.n	10002176 <l17_1+0x4a>
10002166:	3001      	adds	r0, #1
10002168:	2600      	movs	r6, #0
1000216a:	4171      	adcs	r1, r6
1000216c:	4666      	mov	r6, ip
1000216e:	4335      	orrs	r5, r6
10002170:	d101      	bne.n	10002176 <l17_1+0x4a>
10002172:	0840      	lsrs	r0, r0, #1
10002174:	0040      	lsls	r0, r0, #1
10002176:	051b      	lsls	r3, r3, #20
10002178:	18c9      	adds	r1, r1, r3

1000217a <dm_2>:
1000217a:	07e4      	lsls	r4, r4, #31
1000217c:	4421      	add	r1, r4
1000217e:	bdf0      	pop	{r4, r5, r6, r7, pc}

10002180 <dm_0>:
10002180:	da0b      	bge.n	1000219a <dm_1>
10002182:	3301      	adds	r3, #1
10002184:	d106      	bne.n	10002194 <dm_0+0x14>
10002186:	3001      	adds	r0, #1
10002188:	d104      	bne.n	10002194 <dm_0+0x14>
1000218a:	3101      	adds	r1, #1
1000218c:	0d4f      	lsrs	r7, r1, #21
1000218e:	d001      	beq.n	10002194 <dm_0+0x14>
10002190:	0849      	lsrs	r1, r1, #1
10002192:	e7f2      	b.n	1000217a <dm_2>
10002194:	07e1      	lsls	r1, r4, #31
10002196:	2000      	movs	r0, #0
10002198:	bdf0      	pop	{r4, r5, r6, r7, pc}

1000219a <dm_1>:
1000219a:	3601      	adds	r6, #1
1000219c:	0531      	lsls	r1, r6, #20
1000219e:	2000      	movs	r0, #0
100021a0:	e7eb      	b.n	1000217a <dm_2>
100021a2:	0000      	.short	0x0000
100021a4:	000003ff 	.word	0x000003ff

100021a8 <ddiv_shim>:
100021a8:	b5f0      	push	{r4, r5, r6, r7, lr}

100021aa <ddiv0>:
100021aa:	0d1c      	lsrs	r4, r3, #20
100021ac:	1e67      	subs	r7, r4, #1
100021ae:	053f      	lsls	r7, r7, #20
100021b0:	1bdb      	subs	r3, r3, r7
100021b2:	0ae7      	lsrs	r7, r4, #11
100021b4:	0564      	lsls	r4, r4, #21
100021b6:	0d64      	lsrs	r4, r4, #21
100021b8:	d002      	beq.n	100021c0 <l20_1>
100021ba:	1c66      	adds	r6, r4, #1
100021bc:	0af6      	lsrs	r6, r6, #11
100021be:	d004      	beq.n	100021ca <l20_2>

100021c0 <l20_1>:
100021c0:	2200      	movs	r2, #0
100021c2:	2301      	movs	r3, #1
100021c4:	051b      	lsls	r3, r3, #20
100021c6:	3c80      	subs	r4, #128	; 0x80
100021c8:	0324      	lsls	r4, r4, #12

100021ca <l20_2>:
100021ca:	25d0      	movs	r5, #208	; 0xd0
100021cc:	062d      	lsls	r5, r5, #24
100021ce:	2600      	movs	r6, #0
100021d0:	43f6      	mvns	r6, r6
100021d2:	662e      	str	r6, [r5, #96]	; 0x60
100021d4:	091e      	lsrs	r6, r3, #4
100021d6:	666e      	str	r6, [r5, #100]	; 0x64
100021d8:	0fce      	lsrs	r6, r1, #31
100021da:	19f6      	adds	r6, r6, r7
100021dc:	46b4      	mov	ip, r6
100021de:	0049      	lsls	r1, r1, #1
100021e0:	0d4f      	lsrs	r7, r1, #21
100021e2:	d002      	beq.n	100021ea <l20_2+0x20>
100021e4:	1c7e      	adds	r6, r7, #1
100021e6:	0af6      	lsrs	r6, r6, #11
100021e8:	d003      	beq.n	100021f2 <l20_2+0x28>
100021ea:	2000      	movs	r0, #0
100021ec:	2100      	movs	r1, #0
100021ee:	3f40      	subs	r7, #64	; 0x40
100021f0:	033f      	lsls	r7, r7, #12
100021f2:	1b3e      	subs	r6, r7, r4
100021f4:	00b6      	lsls	r6, r6, #2
100021f6:	44b4      	add	ip, r6
100021f8:	3f01      	subs	r7, #1
100021fa:	057f      	lsls	r7, r7, #21
100021fc:	1bc9      	subs	r1, r1, r7
100021fe:	0849      	lsrs	r1, r1, #1
10002200:	6f2e      	ldr	r6, [r5, #112]	; 0x70
10002202:	3601      	adds	r6, #1
10002204:	0876      	lsrs	r6, r6, #1
10002206:	029c      	lsls	r4, r3, #10
10002208:	0d95      	lsrs	r5, r2, #22
1000220a:	4325      	orrs	r5, r4
1000220c:	4375      	muls	r5, r6
1000220e:	13ed      	asrs	r5, r5, #15
10002210:	4375      	muls	r5, r6
10002212:	13ad      	asrs	r5, r5, #14
10002214:	3501      	adds	r5, #1
10002216:	106d      	asrs	r5, r5, #1
10002218:	03f6      	lsls	r6, r6, #15
1000221a:	1b76      	subs	r6, r6, r5
1000221c:	b40c      	push	{r2, r3}
1000221e:	02cc      	lsls	r4, r1, #11
10002220:	0d45      	lsrs	r5, r0, #21
10002222:	432c      	orrs	r4, r5
10002224:	b2a2      	uxth	r2, r4
10002226:	b2b3      	uxth	r3, r6
10002228:	435a      	muls	r2, r3
1000222a:	0c27      	lsrs	r7, r4, #16
1000222c:	437b      	muls	r3, r7
1000222e:	0c35      	lsrs	r5, r6, #16
10002230:	436f      	muls	r7, r5
10002232:	b2a4      	uxth	r4, r4
10002234:	436c      	muls	r4, r5
10002236:	191b      	adds	r3, r3, r4
10002238:	d302      	bcc.n	10002240 <l21_1>
1000223a:	2401      	movs	r4, #1
1000223c:	0424      	lsls	r4, r4, #16
1000223e:	193f      	adds	r7, r7, r4

10002240 <l21_1>:
10002240:	041c      	lsls	r4, r3, #16
10002242:	0c1d      	lsrs	r5, r3, #16
10002244:	18a4      	adds	r4, r4, r2
10002246:	417d      	adcs	r5, r7
10002248:	1924      	adds	r4, r4, r4
1000224a:	416d      	adcs	r5, r5
1000224c:	9a00      	ldr	r2, [sp, #0]
1000224e:	b291      	uxth	r1, r2
10002250:	b2ac      	uxth	r4, r5
10002252:	4361      	muls	r1, r4
10002254:	0c17      	lsrs	r7, r2, #16
10002256:	437c      	muls	r4, r7
10002258:	0c2b      	lsrs	r3, r5, #16
1000225a:	435f      	muls	r7, r3
1000225c:	b292      	uxth	r2, r2
1000225e:	435a      	muls	r2, r3
10002260:	18a4      	adds	r4, r4, r2
10002262:	d302      	bcc.n	1000226a <l22_1>
10002264:	2201      	movs	r2, #1
10002266:	0412      	lsls	r2, r2, #16
10002268:	18bf      	adds	r7, r7, r2

1000226a <l22_1>:
1000226a:	0422      	lsls	r2, r4, #16
1000226c:	0c23      	lsrs	r3, r4, #16
1000226e:	1852      	adds	r2, r2, r1
10002270:	417b      	adcs	r3, r7
10002272:	9c01      	ldr	r4, [sp, #4]
10002274:	436c      	muls	r4, r5
10002276:	191b      	adds	r3, r3, r4
10002278:	0e52      	lsrs	r2, r2, #25
1000227a:	01d9      	lsls	r1, r3, #7
1000227c:	430a      	orrs	r2, r1
1000227e:	0144      	lsls	r4, r0, #5
10002280:	1aa0      	subs	r0, r4, r2
10002282:	b281      	uxth	r1, r0
10002284:	b2b2      	uxth	r2, r6
10002286:	4351      	muls	r1, r2
10002288:	1403      	asrs	r3, r0, #16
1000228a:	435a      	muls	r2, r3
1000228c:	0c36      	lsrs	r6, r6, #16
1000228e:	4373      	muls	r3, r6
10002290:	b287      	uxth	r7, r0
10002292:	4377      	muls	r7, r6
10002294:	17d6      	asrs	r6, r2, #31
10002296:	19d2      	adds	r2, r2, r7
10002298:	2700      	movs	r7, #0
1000229a:	417e      	adcs	r6, r7
1000229c:	0436      	lsls	r6, r6, #16
1000229e:	199b      	adds	r3, r3, r6
100022a0:	0417      	lsls	r7, r2, #16
100022a2:	0c16      	lsrs	r6, r2, #16
100022a4:	187f      	adds	r7, r7, r1
100022a6:	415e      	adcs	r6, r3
100022a8:	1673      	asrs	r3, r6, #25
100022aa:	18ed      	adds	r5, r5, r3
100022ac:	01f3      	lsls	r3, r6, #7
100022ae:	2600      	movs	r6, #0
100022b0:	3380      	adds	r3, #128	; 0x80
100022b2:	4175      	adcs	r5, r6
100022b4:	0fa9      	lsrs	r1, r5, #30
100022b6:	d106      	bne.n	100022c6 <dd_0>
100022b8:	0064      	lsls	r4, r4, #1
100022ba:	0a69      	lsrs	r1, r5, #9
100022bc:	05e8      	lsls	r0, r5, #23
100022be:	0a5b      	lsrs	r3, r3, #9
100022c0:	4318      	orrs	r0, r3
100022c2:	d209      	bcs.n	100022d8 <dd_1>
100022c4:	e02f      	b.n	10002326 <dd_2>

100022c6 <dd_0>:
100022c6:	2204      	movs	r2, #4
100022c8:	4494      	add	ip, r2
100022ca:	3380      	adds	r3, #128	; 0x80
100022cc:	4175      	adcs	r5, r6
100022ce:	0aa9      	lsrs	r1, r5, #10
100022d0:	05a8      	lsls	r0, r5, #22
100022d2:	0a9b      	lsrs	r3, r3, #10
100022d4:	4318      	orrs	r0, r3
100022d6:	d326      	bcc.n	10002326 <dd_2>

100022d8 <dd_1>:
100022d8:	4140      	adcs	r0, r0
100022da:	4149      	adcs	r1, r1
100022dc:	0424      	lsls	r4, r4, #16
100022de:	9a00      	ldr	r2, [sp, #0]
100022e0:	9b01      	ldr	r3, [sp, #4]
100022e2:	000d      	movs	r5, r1
100022e4:	4355      	muls	r5, r2
100022e6:	1b64      	subs	r4, r4, r5
100022e8:	4343      	muls	r3, r0
100022ea:	1ae4      	subs	r4, r4, r3
100022ec:	b295      	uxth	r5, r2
100022ee:	b286      	uxth	r6, r0
100022f0:	4375      	muls	r5, r6
100022f2:	0c17      	lsrs	r7, r2, #16
100022f4:	437e      	muls	r6, r7
100022f6:	0c03      	lsrs	r3, r0, #16
100022f8:	435f      	muls	r7, r3
100022fa:	b292      	uxth	r2, r2
100022fc:	435a      	muls	r2, r3
100022fe:	18b6      	adds	r6, r6, r2
10002300:	d302      	bcc.n	10002308 <l24_1>
10002302:	2201      	movs	r2, #1
10002304:	0412      	lsls	r2, r2, #16
10002306:	18bf      	adds	r7, r7, r2

10002308 <l24_1>:
10002308:	0432      	lsls	r2, r6, #16
1000230a:	0c33      	lsrs	r3, r6, #16
1000230c:	1952      	adds	r2, r2, r5
1000230e:	417b      	adcs	r3, r7
10002310:	4252      	negs	r2, r2
10002312:	419c      	sbcs	r4, r3
10002314:	2c00      	cmp	r4, #0
10002316:	d402      	bmi.n	1000231e <l24_1+0x16>
10002318:	2200      	movs	r2, #0
1000231a:	3001      	adds	r0, #1
1000231c:	4151      	adcs	r1, r2
1000231e:	0840      	lsrs	r0, r0, #1
10002320:	07ca      	lsls	r2, r1, #31
10002322:	4310      	orrs	r0, r2
10002324:	0849      	lsrs	r1, r1, #1

10002326 <dd_2>:
10002326:	b002      	add	sp, #8
10002328:	4662      	mov	r2, ip
1000232a:	07d7      	lsls	r7, r2, #31
1000232c:	1092      	asrs	r2, r2, #2
1000232e:	4b08      	ldr	r3, [pc, #32]	; (10002350 <dd_4+0x6>)
10002330:	18d2      	adds	r2, r2, r3
10002332:	4b08      	ldr	r3, [pc, #32]	; (10002354 <dd_4+0xa>)
10002334:	429a      	cmp	r2, r3
10002336:	d203      	bcs.n	10002340 <dd_3>
10002338:	0512      	lsls	r2, r2, #20
1000233a:	1889      	adds	r1, r1, r2

1000233c <dd_5>:
1000233c:	19c9      	adds	r1, r1, r7
1000233e:	bdf0      	pop	{r4, r5, r6, r7, pc}

10002340 <dd_3>:
10002340:	2000      	movs	r0, #0
10002342:	2a00      	cmp	r2, #0
10002344:	dc01      	bgt.n	1000234a <dd_4>
10002346:	0039      	movs	r1, r7
10002348:	bdf0      	pop	{r4, r5, r6, r7, pc}

1000234a <dd_4>:
1000234a:	3301      	adds	r3, #1
1000234c:	0519      	lsls	r1, r3, #20
1000234e:	e7f5      	b.n	1000233c <dd_5>
10002350:	000003fd 	.word	0x000003fd
10002354:	000007fe 	.word	0x000007fe

10002358 <double2uint_shim>:
10002358:	2200      	movs	r2, #0

1000235a <double2ufix_shim>:
1000235a:	b500      	push	{lr}
1000235c:	3220      	adds	r2, #32
1000235e:	f000 f804 	bl	1000236a <double2ufix64_shim>
10002362:	0008      	movs	r0, r1
10002364:	bd00      	pop	{pc}
	...

10002368 <double2uint64_shim>:
10002368:	2200      	movs	r2, #0

1000236a <double2ufix64_shim>:
1000236a:	150b      	asrs	r3, r1, #20
1000236c:	d40a      	bmi.n	10002384 <ret_dzero>

1000236e <d2fix>:
1000236e:	b510      	push	{r4, lr}
10002370:	4694      	mov	ip, r2
10002372:	f000 f831 	bl	100023d8 <dunpacks>
10002376:	1414      	asrs	r4, r2, #16
10002378:	3401      	adds	r4, #1
1000237a:	da00      	bge.n	1000237e <d2fix+0x10>
1000237c:	2100      	movs	r1, #0
1000237e:	17cb      	asrs	r3, r1, #31
10002380:	4c14      	ldr	r4, [pc, #80]	; (100023d4 <d2fix_a+0x4a>)
10002382:	4720      	bx	r4

10002384 <ret_dzero>:
10002384:	2000      	movs	r0, #0
10002386:	2100      	movs	r1, #0
10002388:	4770      	bx	lr

1000238a <d2fix_a>:
1000238a:	4462      	add	r2, ip
1000238c:	3a34      	subs	r2, #52	; 0x34
1000238e:	d40c      	bmi.n	100023aa <d2fix_a+0x20>
10002390:	2a0c      	cmp	r2, #12
10002392:	da07      	bge.n	100023a4 <d2fix_a+0x1a>
10002394:	0004      	movs	r4, r0
10002396:	4091      	lsls	r1, r2
10002398:	4090      	lsls	r0, r2
1000239a:	4252      	negs	r2, r2
1000239c:	3220      	adds	r2, #32
1000239e:	40d4      	lsrs	r4, r2
100023a0:	4321      	orrs	r1, r4
100023a2:	bd10      	pop	{r4, pc}
100023a4:	43d8      	mvns	r0, r3
100023a6:	43d9      	mvns	r1, r3
100023a8:	bd10      	pop	{r4, pc}
100023aa:	3220      	adds	r2, #32
100023ac:	d407      	bmi.n	100023be <d2fix_a+0x34>
100023ae:	460c      	mov	r4, r1
100023b0:	4094      	lsls	r4, r2
100023b2:	4252      	negs	r2, r2
100023b4:	3220      	adds	r2, #32
100023b6:	4111      	asrs	r1, r2
100023b8:	40d0      	lsrs	r0, r2
100023ba:	4320      	orrs	r0, r4
100023bc:	bd10      	pop	{r4, pc}
100023be:	0008      	movs	r0, r1
100023c0:	17c9      	asrs	r1, r1, #31
100023c2:	3220      	adds	r2, #32
100023c4:	d403      	bmi.n	100023ce <d2fix_a+0x44>
100023c6:	4252      	negs	r2, r2
100023c8:	3220      	adds	r2, #32
100023ca:	4110      	asrs	r0, r2
100023cc:	bd10      	pop	{r4, pc}
100023ce:	0018      	movs	r0, r3
100023d0:	0019      	movs	r1, r3
100023d2:	bd10      	pop	{r4, pc}
100023d4:	1000238b 	.word	0x1000238b

100023d8 <dunpacks>:
100023d8:	0d0a      	lsrs	r2, r1, #20
100023da:	0fcc      	lsrs	r4, r1, #31
100023dc:	1e53      	subs	r3, r2, #1
100023de:	051b      	lsls	r3, r3, #20
100023e0:	1ac9      	subs	r1, r1, r3
100023e2:	0552      	lsls	r2, r2, #21
100023e4:	d303      	bcc.n	100023ee <l60_1>
100023e6:	43c9      	mvns	r1, r1
100023e8:	4240      	negs	r0, r0
100023ea:	d300      	bcc.n	100023ee <l60_1>
100023ec:	3101      	adds	r1, #1

100023ee <l60_1>:
100023ee:	0d52      	lsrs	r2, r2, #21
100023f0:	d003      	beq.n	100023fa <l60_2>
100023f2:	1c53      	adds	r3, r2, #1
100023f4:	0adb      	lsrs	r3, r3, #11
100023f6:	d007      	beq.n	10002408 <l60_3>
100023f8:	1b12      	subs	r2, r2, r4

100023fa <l60_2>:
100023fa:	2000      	movs	r0, #0
100023fc:	0064      	lsls	r4, r4, #1
100023fe:	1c61      	adds	r1, r4, #1
10002400:	0789      	lsls	r1, r1, #30
10002402:	1289      	asrs	r1, r1, #10
10002404:	3a80      	subs	r2, #128	; 0x80
10002406:	0312      	lsls	r2, r2, #12

10002408 <l60_3>:
10002408:	4b01      	ldr	r3, [pc, #4]	; (10002410 <l60_3+0x8>)
1000240a:	1ad2      	subs	r2, r2, r3
1000240c:	4770      	bx	lr
1000240e:	0000      	.short	0x0000
10002410:	000003ff 	.word	0x000003ff

10002414 <__wrap___aeabi_frsub>:
10002414:	4048      	eors	r0, r1
10002416:	4041      	eors	r1, r0
10002418:	4048      	eors	r0, r1

1000241a <__wrap___aeabi_fsub>:
1000241a:	2300      	movs	r3, #0
1000241c:	469c      	mov	ip, r3
1000241e:	4b11      	ldr	r3, [pc, #68]	; (10002464 <__wrap___aeabi_fmul+0xa>)
10002420:	685b      	ldr	r3, [r3, #4]
10002422:	4718      	bx	r3

10002424 <__wrap___aeabi_fadd>:
10002424:	2300      	movs	r3, #0
10002426:	469c      	mov	ip, r3
10002428:	4b0e      	ldr	r3, [pc, #56]	; (10002464 <__wrap___aeabi_fmul+0xa>)
1000242a:	681b      	ldr	r3, [r3, #0]
1000242c:	4718      	bx	r3

1000242e <__wrap___aeabi_fdiv>:
1000242e:	4a0e      	ldr	r2, [pc, #56]	; (10002468 <__wrap___aeabi_fmul+0xe>)
10002430:	6f93      	ldr	r3, [r2, #120]	; 0x78
10002432:	089b      	lsrs	r3, r3, #2
10002434:	d204      	bcs.n	10002440 <fdiv_save_state>

10002436 <fdiv_shim_call>:
10002436:	2300      	movs	r3, #0
10002438:	469c      	mov	ip, r3
1000243a:	4b0a      	ldr	r3, [pc, #40]	; (10002464 <__wrap___aeabi_fmul+0xa>)
1000243c:	68db      	ldr	r3, [r3, #12]
1000243e:	4718      	bx	r3

10002440 <fdiv_save_state>:
10002440:	b5f0      	push	{r4, r5, r6, r7, lr}
10002442:	6e14      	ldr	r4, [r2, #96]	; 0x60
10002444:	6e55      	ldr	r5, [r2, #100]	; 0x64
10002446:	6f57      	ldr	r7, [r2, #116]	; 0x74
10002448:	6f16      	ldr	r6, [r2, #112]	; 0x70
1000244a:	f7ff fff4 	bl	10002436 <fdiv_shim_call>
1000244e:	4a06      	ldr	r2, [pc, #24]	; (10002468 <__wrap___aeabi_fmul+0xe>)
10002450:	6614      	str	r4, [r2, #96]	; 0x60
10002452:	6655      	str	r5, [r2, #100]	; 0x64
10002454:	6757      	str	r7, [r2, #116]	; 0x74
10002456:	6716      	str	r6, [r2, #112]	; 0x70
10002458:	bdf0      	pop	{r4, r5, r6, r7, pc}

1000245a <__wrap___aeabi_fmul>:
1000245a:	2300      	movs	r3, #0
1000245c:	469c      	mov	ip, r3
1000245e:	4b01      	ldr	r3, [pc, #4]	; (10002464 <__wrap___aeabi_fmul+0xa>)
10002460:	689b      	ldr	r3, [r3, #8]
10002462:	4718      	bx	r3
10002464:	200005cc 	.word	0x200005cc
10002468:	d0000000 	.word	0xd0000000

1000246c <__wrap___aeabi_ui2f>:
1000246c:	1a49      	subs	r1, r1, r1
1000246e:	2800      	cmp	r0, #0
10002470:	d108      	bne.n	10002484 <__aeabi_i2f_main>
10002472:	4608      	mov	r0, r1
10002474:	4770      	bx	lr
	...

10002478 <__wrap___aeabi_i2f>:
10002478:	0fc1      	lsrs	r1, r0, #31
1000247a:	07c9      	lsls	r1, r1, #31
1000247c:	d500      	bpl.n	10002480 <__wrap___aeabi_i2f+0x8>
1000247e:	4240      	negs	r0, r0
10002480:	2800      	cmp	r0, #0
10002482:	d017      	beq.n	100024b4 <__aeabi_i2f_main+0x30>

10002484 <__aeabi_i2f_main>:
10002484:	46f4      	mov	ip, lr
10002486:	b403      	push	{r0, r1}
10002488:	4b0b      	ldr	r3, [pc, #44]	; (100024b8 <__aeabi_i2f_main+0x34>)
1000248a:	681b      	ldr	r3, [r3, #0]
1000248c:	4798      	blx	r3
1000248e:	bc06      	pop	{r1, r2}
10002490:	4081      	lsls	r1, r0
10002492:	389e      	subs	r0, #158	; 0x9e
10002494:	4240      	negs	r0, r0
10002496:	3180      	adds	r1, #128	; 0x80
10002498:	d207      	bcs.n	100024aa <__aeabi_i2f_main+0x26>
1000249a:	060b      	lsls	r3, r1, #24
1000249c:	d007      	beq.n	100024ae <__aeabi_i2f_main+0x2a>
1000249e:	0049      	lsls	r1, r1, #1
100024a0:	0a49      	lsrs	r1, r1, #9
100024a2:	05c0      	lsls	r0, r0, #23
100024a4:	4310      	orrs	r0, r2
100024a6:	4308      	orrs	r0, r1
100024a8:	4760      	bx	ip
100024aa:	3001      	adds	r0, #1
100024ac:	e7f8      	b.n	100024a0 <__aeabi_i2f_main+0x1c>
100024ae:	0a49      	lsrs	r1, r1, #9
100024b0:	0289      	lsls	r1, r1, #10
100024b2:	e7f5      	b.n	100024a0 <__aeabi_i2f_main+0x1c>
100024b4:	4770      	bx	lr
100024b6:	0000      	.short	0x0000
100024b8:	200005c8 	.word	0x200005c8

100024bc <__wrap___aeabi_f2iz>:
100024bc:	0041      	lsls	r1, r0, #1
100024be:	0e0a      	lsrs	r2, r1, #24
100024c0:	2380      	movs	r3, #128	; 0x80
100024c2:	061b      	lsls	r3, r3, #24
100024c4:	2a7e      	cmp	r2, #126	; 0x7e
100024c6:	dd0b      	ble.n	100024e0 <__wrap___aeabi_f2iz+0x24>
100024c8:	3a9e      	subs	r2, #158	; 0x9e
100024ca:	da0b      	bge.n	100024e4 <__wrap___aeabi_f2iz+0x28>
100024cc:	17c1      	asrs	r1, r0, #31
100024ce:	0240      	lsls	r0, r0, #9
100024d0:	0840      	lsrs	r0, r0, #1
100024d2:	4318      	orrs	r0, r3
100024d4:	4252      	negs	r2, r2
100024d6:	40d0      	lsrs	r0, r2
100024d8:	0049      	lsls	r1, r1, #1
100024da:	3101      	adds	r1, #1
100024dc:	4348      	muls	r0, r1
100024de:	4770      	bx	lr
100024e0:	2000      	movs	r0, #0
100024e2:	4770      	bx	lr
100024e4:	0fc0      	lsrs	r0, r0, #31
100024e6:	18c0      	adds	r0, r0, r3
100024e8:	3801      	subs	r0, #1
100024ea:	4770      	bx	lr
100024ec:	42c0      	cmn	r0, r0
100024ee:	d30d      	bcc.n	1000250c <float2int>
100024f0:	b500      	push	{lr}
100024f2:	0040      	lsls	r0, r0, #1
100024f4:	0840      	lsrs	r0, r0, #1
100024f6:	2100      	movs	r1, #0
100024f8:	f000 f812 	bl	10002520 <__wrap___aeabi_f2uiz>
100024fc:	2800      	cmp	r0, #0
100024fe:	d401      	bmi.n	10002504 <__wrap___aeabi_f2iz+0x48>
10002500:	4240      	negs	r0, r0
10002502:	bd00      	pop	{pc}
10002504:	2080      	movs	r0, #128	; 0x80
10002506:	0600      	lsls	r0, r0, #24
10002508:	bd00      	pop	{pc}
	...

1000250c <float2int>:
1000250c:	4b03      	ldr	r3, [pc, #12]	; (1000251c <float2int+0x10>)
1000250e:	69db      	ldr	r3, [r3, #28]
10002510:	46fc      	mov	ip, pc
10002512:	4718      	bx	r3
10002514:	2661df1c 	.word	0x2661df1c
10002518:	00001000 	.word	0x00001000
1000251c:	200005cc 	.word	0x200005cc

10002520 <__wrap___aeabi_f2uiz>:
10002520:	2300      	movs	r3, #0
10002522:	469c      	mov	ip, r3
10002524:	4b01      	ldr	r3, [pc, #4]	; (1000252c <__wrap___aeabi_f2uiz+0xc>)
10002526:	6a5b      	ldr	r3, [r3, #36]	; 0x24
10002528:	4718      	bx	r3
1000252a:	0000      	.short	0x0000
1000252c:	200005cc 	.word	0x200005cc

10002530 <__aeabi_float_init>:
10002530:	b570      	push	{r4, r5, r6, lr}
10002532:	2313      	movs	r3, #19
10002534:	781d      	ldrb	r5, [r3, #0]
10002536:	482a      	ldr	r0, [pc, #168]	; (100025e0 <__aeabi_float_init+0xb0>)
10002538:	f7ff f8e6 	bl	10001708 <rom_data_lookup>
1000253c:	0004      	movs	r4, r0
1000253e:	2d01      	cmp	r5, #1
10002540:	d011      	beq.n	10002566 <__aeabi_float_init+0x36>
10002542:	2d01      	cmp	r5, #1
10002544:	dd09      	ble.n	1000255a <__aeabi_float_init+0x2a>
10002546:	1ea3      	subs	r3, r4, #2
10002548:	781b      	ldrb	r3, [r3, #0]
1000254a:	009b      	lsls	r3, r3, #2
1000254c:	2b7f      	cmp	r3, #127	; 0x7f
1000254e:	dd40      	ble.n	100025d2 <__aeabi_float_init+0xa2>
10002550:	2280      	movs	r2, #128	; 0x80
10002552:	0021      	movs	r1, r4
10002554:	4823      	ldr	r0, [pc, #140]	; (100025e4 <__aeabi_float_init+0xb4>)
10002556:	f000 f897 	bl	10002688 <__wrap___aeabi_memcpy>
1000255a:	4823      	ldr	r0, [pc, #140]	; (100025e8 <__aeabi_float_init+0xb8>)
1000255c:	f7ff f8cc 	bl	100016f8 <rom_func_lookup>
10002560:	4b22      	ldr	r3, [pc, #136]	; (100025ec <__aeabi_float_init+0xbc>)
10002562:	6018      	str	r0, [r3, #0]
10002564:	bd70      	pop	{r4, r5, r6, pc}
10002566:	2254      	movs	r2, #84	; 0x54
10002568:	0001      	movs	r1, r0
1000256a:	481e      	ldr	r0, [pc, #120]	; (100025e4 <__aeabi_float_init+0xb4>)
1000256c:	f000 f88c 	bl	10002688 <__wrap___aeabi_memcpy>
10002570:	4b1f      	ldr	r3, [pc, #124]	; (100025f0 <__aeabi_float_init+0xc0>)
10002572:	881a      	ldrh	r2, [r3, #0]
10002574:	4b1f      	ldr	r3, [pc, #124]	; (100025f4 <__aeabi_float_init+0xc4>)
10002576:	429a      	cmp	r2, r3
10002578:	d11c      	bne.n	100025b4 <__aeabi_float_init+0x84>
1000257a:	23a7      	movs	r3, #167	; 0xa7
1000257c:	019b      	lsls	r3, r3, #6
1000257e:	881a      	ldrh	r2, [r3, #0]
10002580:	4b1d      	ldr	r3, [pc, #116]	; (100025f8 <__aeabi_float_init+0xc8>)
10002582:	429a      	cmp	r2, r3
10002584:	d116      	bne.n	100025b4 <__aeabi_float_init+0x84>
10002586:	4b1d      	ldr	r3, [pc, #116]	; (100025fc <__aeabi_float_init+0xcc>)
10002588:	881a      	ldrh	r2, [r3, #0]
1000258a:	4b1d      	ldr	r3, [pc, #116]	; (10002600 <__aeabi_float_init+0xd0>)
1000258c:	429a      	cmp	r2, r3
1000258e:	d111      	bne.n	100025b4 <__aeabi_float_init+0x84>
10002590:	4b1c      	ldr	r3, [pc, #112]	; (10002604 <__aeabi_float_init+0xd4>)
10002592:	881a      	ldrh	r2, [r3, #0]
10002594:	2394      	movs	r3, #148	; 0x94
10002596:	019b      	lsls	r3, r3, #6
10002598:	429a      	cmp	r2, r3
1000259a:	d10b      	bne.n	100025b4 <__aeabi_float_init+0x84>
1000259c:	4b1a      	ldr	r3, [pc, #104]	; (10002608 <__aeabi_float_init+0xd8>)
1000259e:	881a      	ldrh	r2, [r3, #0]
100025a0:	4b1a      	ldr	r3, [pc, #104]	; (1000260c <__aeabi_float_init+0xdc>)
100025a2:	429a      	cmp	r2, r3
100025a4:	d106      	bne.n	100025b4 <__aeabi_float_init+0x84>
100025a6:	4b1a      	ldr	r3, [pc, #104]	; (10002610 <__aeabi_float_init+0xe0>)
100025a8:	681a      	ldr	r2, [r3, #0]
100025aa:	4b1a      	ldr	r3, [pc, #104]	; (10002614 <__aeabi_float_init+0xe4>)
100025ac:	429a      	cmp	r2, r3
100025ae:	d101      	bne.n	100025b4 <__aeabi_float_init+0x84>
100025b0:	2315      	movs	r3, #21
100025b2:	e007      	b.n	100025c4 <__aeabi_float_init+0x94>
100025b4:	4818      	ldr	r0, [pc, #96]	; (10002618 <__aeabi_float_init+0xe8>)
100025b6:	f7fd ff8f 	bl	100004d8 <panic>
100025ba:	0099      	lsls	r1, r3, #2
100025bc:	4817      	ldr	r0, [pc, #92]	; (1000261c <__aeabi_float_init+0xec>)
100025be:	4a09      	ldr	r2, [pc, #36]	; (100025e4 <__aeabi_float_init+0xb4>)
100025c0:	5088      	str	r0, [r1, r2]
100025c2:	3301      	adds	r3, #1
100025c4:	2b1f      	cmp	r3, #31
100025c6:	d9f8      	bls.n	100025ba <__aeabi_float_init+0x8a>
100025c8:	4a14      	ldr	r2, [pc, #80]	; (1000261c <__aeabi_float_init+0xec>)
100025ca:	4b06      	ldr	r3, [pc, #24]	; (100025e4 <__aeabi_float_init+0xb4>)
100025cc:	621a      	str	r2, [r3, #32]
100025ce:	61da      	str	r2, [r3, #28]
100025d0:	e7b7      	b.n	10002542 <__aeabi_float_init+0x12>
100025d2:	4b13      	ldr	r3, [pc, #76]	; (10002620 <__aeabi_float_init+0xf0>)
100025d4:	4a13      	ldr	r2, [pc, #76]	; (10002624 <__aeabi_float_init+0xf4>)
100025d6:	2142      	movs	r1, #66	; 0x42
100025d8:	4813      	ldr	r0, [pc, #76]	; (10002628 <__aeabi_float_init+0xf8>)
100025da:	f001 f901 	bl	100037e0 <__assert_func>
100025de:	46c0      	nop			; (mov r8, r8)
100025e0:	00004653 	.word	0x00004653
100025e4:	200005cc 	.word	0x200005cc
100025e8:	0000334c 	.word	0x0000334c
100025ec:	200005c8 	.word	0x200005c8
100025f0:	000029ee 	.word	0x000029ee
100025f4:	00000fc4 	.word	0x00000fc4
100025f8:	00000dc2 	.word	0x00000dc2
100025fc:	00002b96 	.word	0x00002b96
10002600:	0000b5c0 	.word	0x0000b5c0
10002604:	00002b18 	.word	0x00002b18
10002608:	00002acc 	.word	0x00002acc
1000260c:	0000b510 	.word	0x0000b510
10002610:	00002cfc 	.word	0x00002cfc
10002614:	6487ed51 	.word	0x6487ed51
10002618:	100047dc 	.word	0x100047dc
1000261c:	1000262d 	.word	0x1000262d
10002620:	10004468 	.word	0x10004468
10002624:	100044fc 	.word	0x100044fc
10002628:	1000449c 	.word	0x1000449c

1000262c <float_table_shim_on_use_helper>:
1000262c:	b507      	push	{r0, r1, r2, lr}
1000262e:	4660      	mov	r0, ip
10002630:	2800      	cmp	r0, #0
10002632:	d100      	bne.n	10002636 <float_table_shim_on_use_helper+0xa>
10002634:	be00      	bkpt	0x0000
10002636:	8801      	ldrh	r1, [r0, #0]
10002638:	0a0a      	lsrs	r2, r1, #8
1000263a:	3002      	adds	r0, #2
1000263c:	2adf      	cmp	r2, #223	; 0xdf
1000263e:	d1fa      	bne.n	10002636 <float_table_shim_on_use_helper+0xa>
10002640:	b2c9      	uxtb	r1, r1
10002642:	0882      	lsrs	r2, r0, #2
10002644:	d304      	bcc.n	10002650 <float_table_shim_on_use_helper+0x24>
10002646:	8802      	ldrh	r2, [r0, #0]
10002648:	8840      	ldrh	r0, [r0, #2]
1000264a:	0400      	lsls	r0, r0, #16
1000264c:	4310      	orrs	r0, r2
1000264e:	e000      	b.n	10002652 <float_table_shim_on_use_helper+0x26>
10002650:	6800      	ldr	r0, [r0, #0]
10002652:	4a02      	ldr	r2, [pc, #8]	; (1000265c <float_table_shim_on_use_helper+0x30>)
10002654:	5050      	str	r0, [r2, r1]
10002656:	9003      	str	r0, [sp, #12]
10002658:	bd07      	pop	{r0, r1, r2, pc}
1000265a:	0000      	.short	0x0000
1000265c:	200005cc 	.word	0x200005cc

10002660 <float2int_shim>:
10002660:	2100      	movs	r1, #0

10002662 <float2fix_shim>:
10002662:	15c2      	asrs	r2, r0, #23
10002664:	3280      	adds	r2, #128	; 0x80
10002666:	3280      	adds	r2, #128	; 0x80
10002668:	d001      	beq.n	1000266e <float2fix_shim+0xc>
1000266a:	4a02      	ldr	r2, [pc, #8]	; (10002674 <float2fix_shim+0x12>)
1000266c:	4710      	bx	r2
1000266e:	2000      	movs	r0, #0
10002670:	4770      	bx	lr
10002672:	0000      	.short	0x0000
10002674:	00002acd 	.word	0x00002acd

10002678 <__aeabi_mem_init>:
10002678:	4801      	ldr	r0, [pc, #4]	; (10002680 <__aeabi_mem_init+0x8>)
1000267a:	2104      	movs	r1, #4
1000267c:	4b01      	ldr	r3, [pc, #4]	; (10002684 <__aeabi_mem_init+0xc>)
1000267e:	4718      	bx	r3
10002680:	200002b0 	.word	0x200002b0
10002684:	10001719 	.word	0x10001719

10002688 <__wrap___aeabi_memcpy>:
10002688:	4b01      	ldr	r3, [pc, #4]	; (10002690 <__wrap___aeabi_memcpy+0x8>)
1000268a:	685b      	ldr	r3, [r3, #4]
1000268c:	4718      	bx	r3
1000268e:	0000      	.short	0x0000
10002690:	200002b0 	.word	0x200002b0

10002694 <_out_null>:
10002694:	4770      	bx	lr

10002696 <_out_fct>:
10002696:	b510      	push	{r4, lr}
10002698:	2800      	cmp	r0, #0
1000269a:	d002      	beq.n	100026a2 <_out_fct+0xc>
1000269c:	680b      	ldr	r3, [r1, #0]
1000269e:	6849      	ldr	r1, [r1, #4]
100026a0:	4798      	blx	r3
100026a2:	bd10      	pop	{r4, pc}

100026a4 <_atoi>:
100026a4:	0001      	movs	r1, r0
100026a6:	2000      	movs	r0, #0
100026a8:	e007      	b.n	100026ba <_atoi+0x16>
100026aa:	0083      	lsls	r3, r0, #2
100026ac:	181b      	adds	r3, r3, r0
100026ae:	005b      	lsls	r3, r3, #1
100026b0:	1c50      	adds	r0, r2, #1
100026b2:	6008      	str	r0, [r1, #0]
100026b4:	7810      	ldrb	r0, [r2, #0]
100026b6:	18c0      	adds	r0, r0, r3
100026b8:	3830      	subs	r0, #48	; 0x30
100026ba:	680a      	ldr	r2, [r1, #0]
100026bc:	7813      	ldrb	r3, [r2, #0]
100026be:	3b30      	subs	r3, #48	; 0x30
100026c0:	b2db      	uxtb	r3, r3
100026c2:	2b09      	cmp	r3, #9
100026c4:	d9f1      	bls.n	100026aa <_atoi+0x6>
100026c6:	4770      	bx	lr

100026c8 <_out_rev>:
100026c8:	b5f0      	push	{r4, r5, r6, r7, lr}
100026ca:	46de      	mov	lr, fp
100026cc:	4657      	mov	r7, sl
100026ce:	464e      	mov	r6, r9
100026d0:	4645      	mov	r5, r8
100026d2:	b5e0      	push	{r5, r6, r7, lr}
100026d4:	b083      	sub	sp, #12
100026d6:	4693      	mov	fp, r2
100026d8:	001f      	movs	r7, r3
100026da:	9b0c      	ldr	r3, [sp, #48]	; 0x30
100026dc:	469a      	mov	sl, r3
100026de:	9c0d      	ldr	r4, [sp, #52]	; 0x34
100026e0:	9b0e      	ldr	r3, [sp, #56]	; 0x38
100026e2:	4699      	mov	r9, r3
100026e4:	9b0f      	ldr	r3, [sp, #60]	; 0x3c
100026e6:	079b      	lsls	r3, r3, #30
100026e8:	d003      	beq.n	100026f2 <_out_rev+0x2a>
100026ea:	46b8      	mov	r8, r7
100026ec:	000f      	movs	r7, r1
100026ee:	0006      	movs	r6, r0
100026f0:	e022      	b.n	10002738 <_out_rev+0x70>
100026f2:	9201      	str	r2, [sp, #4]
100026f4:	46a3      	mov	fp, r4
100026f6:	4688      	mov	r8, r1
100026f8:	464e      	mov	r6, r9
100026fa:	46b9      	mov	r9, r7
100026fc:	0007      	movs	r7, r0
100026fe:	42b4      	cmp	r4, r6
10002700:	d207      	bcs.n	10002712 <_out_rev+0x4a>
10002702:	1c55      	adds	r5, r2, #1
10002704:	464b      	mov	r3, r9
10002706:	4641      	mov	r1, r8
10002708:	2020      	movs	r0, #32
1000270a:	47b8      	blx	r7
1000270c:	3401      	adds	r4, #1
1000270e:	002a      	movs	r2, r5
10002710:	e7f5      	b.n	100026fe <_out_rev+0x36>
10002712:	003d      	movs	r5, r7
10002714:	464f      	mov	r7, r9
10002716:	465c      	mov	r4, fp
10002718:	9b01      	ldr	r3, [sp, #4]
1000271a:	469b      	mov	fp, r3
1000271c:	46b1      	mov	r9, r6
1000271e:	4646      	mov	r6, r8
10002720:	46b8      	mov	r8, r7
10002722:	0037      	movs	r7, r6
10002724:	002e      	movs	r6, r5
10002726:	e007      	b.n	10002738 <_out_rev+0x70>
10002728:	3c01      	subs	r4, #1
1000272a:	1c55      	adds	r5, r2, #1
1000272c:	4653      	mov	r3, sl
1000272e:	5d18      	ldrb	r0, [r3, r4]
10002730:	4643      	mov	r3, r8
10002732:	0039      	movs	r1, r7
10002734:	47b0      	blx	r6
10002736:	002a      	movs	r2, r5
10002738:	2c00      	cmp	r4, #0
1000273a:	d1f5      	bne.n	10002728 <_out_rev+0x60>
1000273c:	0035      	movs	r5, r6
1000273e:	003e      	movs	r6, r7
10002740:	4647      	mov	r7, r8
10002742:	9b0f      	ldr	r3, [sp, #60]	; 0x3c
10002744:	079b      	lsls	r3, r3, #30
10002746:	d407      	bmi.n	10002758 <_out_rev+0x90>
10002748:	0010      	movs	r0, r2
1000274a:	b003      	add	sp, #12
1000274c:	bcf0      	pop	{r4, r5, r6, r7}
1000274e:	46bb      	mov	fp, r7
10002750:	46b2      	mov	sl, r6
10002752:	46a9      	mov	r9, r5
10002754:	46a0      	mov	r8, r4
10002756:	bdf0      	pop	{r4, r5, r6, r7, pc}
10002758:	46b0      	mov	r8, r6
1000275a:	464e      	mov	r6, r9
1000275c:	46b9      	mov	r9, r7
1000275e:	002f      	movs	r7, r5
10002760:	465d      	mov	r5, fp
10002762:	1b53      	subs	r3, r2, r5
10002764:	42b3      	cmp	r3, r6
10002766:	d2ef      	bcs.n	10002748 <_out_rev+0x80>
10002768:	1c54      	adds	r4, r2, #1
1000276a:	464b      	mov	r3, r9
1000276c:	4641      	mov	r1, r8
1000276e:	2020      	movs	r0, #32
10002770:	47b8      	blx	r7
10002772:	0022      	movs	r2, r4
10002774:	e7f5      	b.n	10002762 <_out_rev+0x9a>

10002776 <_ntoa_format>:
10002776:	b5f0      	push	{r4, r5, r6, r7, lr}
10002778:	46ce      	mov	lr, r9
1000277a:	4647      	mov	r7, r8
1000277c:	b580      	push	{r7, lr}
1000277e:	b085      	sub	sp, #20
10002780:	4694      	mov	ip, r2
10002782:	4698      	mov	r8, r3
10002784:	9d0c      	ldr	r5, [sp, #48]	; 0x30
10002786:	9c0d      	ldr	r4, [sp, #52]	; 0x34
10002788:	ab0e      	add	r3, sp, #56	; 0x38
1000278a:	781b      	ldrb	r3, [r3, #0]
1000278c:	4699      	mov	r9, r3
1000278e:	9a10      	ldr	r2, [sp, #64]	; 0x40
10002790:	9b11      	ldr	r3, [sp, #68]	; 0x44
10002792:	9e12      	ldr	r6, [sp, #72]	; 0x48
10002794:	07b7      	lsls	r7, r6, #30
10002796:	d41c      	bmi.n	100027d2 <_ntoa_format+0x5c>
10002798:	2b00      	cmp	r3, #0
1000279a:	d00c      	beq.n	100027b6 <_ntoa_format+0x40>
1000279c:	07f7      	lsls	r7, r6, #31
1000279e:	d50a      	bpl.n	100027b6 <_ntoa_format+0x40>
100027a0:	464f      	mov	r7, r9
100027a2:	2f00      	cmp	r7, #0
100027a4:	d102      	bne.n	100027ac <_ntoa_format+0x36>
100027a6:	370c      	adds	r7, #12
100027a8:	4237      	tst	r7, r6
100027aa:	d004      	beq.n	100027b6 <_ntoa_format+0x40>
100027ac:	3b01      	subs	r3, #1
100027ae:	e002      	b.n	100027b6 <_ntoa_format+0x40>
100027b0:	2730      	movs	r7, #48	; 0x30
100027b2:	552f      	strb	r7, [r5, r4]
100027b4:	3401      	adds	r4, #1
100027b6:	4294      	cmp	r4, r2
100027b8:	d201      	bcs.n	100027be <_ntoa_format+0x48>
100027ba:	2c1f      	cmp	r4, #31
100027bc:	d9f8      	bls.n	100027b0 <_ntoa_format+0x3a>
100027be:	07f7      	lsls	r7, r6, #31
100027c0:	d507      	bpl.n	100027d2 <_ntoa_format+0x5c>
100027c2:	429c      	cmp	r4, r3
100027c4:	d205      	bcs.n	100027d2 <_ntoa_format+0x5c>
100027c6:	2c1f      	cmp	r4, #31
100027c8:	d803      	bhi.n	100027d2 <_ntoa_format+0x5c>
100027ca:	2730      	movs	r7, #48	; 0x30
100027cc:	552f      	strb	r7, [r5, r4]
100027ce:	3401      	adds	r4, #1
100027d0:	e7f5      	b.n	100027be <_ntoa_format+0x48>
100027d2:	06f7      	lsls	r7, r6, #27
100027d4:	d515      	bpl.n	10002802 <_ntoa_format+0x8c>
100027d6:	0577      	lsls	r7, r6, #21
100027d8:	d405      	bmi.n	100027e6 <_ntoa_format+0x70>
100027da:	2c00      	cmp	r4, #0
100027dc:	d003      	beq.n	100027e6 <_ntoa_format+0x70>
100027de:	4294      	cmp	r4, r2
100027e0:	d024      	beq.n	1000282c <_ntoa_format+0xb6>
100027e2:	429c      	cmp	r4, r3
100027e4:	d022      	beq.n	1000282c <_ntoa_format+0xb6>
100027e6:	9a0f      	ldr	r2, [sp, #60]	; 0x3c
100027e8:	2a10      	cmp	r2, #16
100027ea:	d02b      	beq.n	10002844 <_ntoa_format+0xce>
100027ec:	9a0f      	ldr	r2, [sp, #60]	; 0x3c
100027ee:	2a10      	cmp	r2, #16
100027f0:	d030      	beq.n	10002854 <_ntoa_format+0xde>
100027f2:	9a0f      	ldr	r2, [sp, #60]	; 0x3c
100027f4:	2a02      	cmp	r2, #2
100027f6:	d035      	beq.n	10002864 <_ntoa_format+0xee>
100027f8:	2c1f      	cmp	r4, #31
100027fa:	d802      	bhi.n	10002802 <_ntoa_format+0x8c>
100027fc:	2230      	movs	r2, #48	; 0x30
100027fe:	552a      	strb	r2, [r5, r4]
10002800:	3401      	adds	r4, #1
10002802:	2c1f      	cmp	r4, #31
10002804:	d805      	bhi.n	10002812 <_ntoa_format+0x9c>
10002806:	464a      	mov	r2, r9
10002808:	2a00      	cmp	r2, #0
1000280a:	d031      	beq.n	10002870 <_ntoa_format+0xfa>
1000280c:	222d      	movs	r2, #45	; 0x2d
1000280e:	552a      	strb	r2, [r5, r4]
10002810:	3401      	adds	r4, #1
10002812:	9603      	str	r6, [sp, #12]
10002814:	9302      	str	r3, [sp, #8]
10002816:	9401      	str	r4, [sp, #4]
10002818:	9500      	str	r5, [sp, #0]
1000281a:	4643      	mov	r3, r8
1000281c:	4662      	mov	r2, ip
1000281e:	f7ff ff53 	bl	100026c8 <_out_rev>
10002822:	b005      	add	sp, #20
10002824:	bcc0      	pop	{r6, r7}
10002826:	46b9      	mov	r9, r7
10002828:	46b0      	mov	r8, r6
1000282a:	bdf0      	pop	{r4, r5, r6, r7, pc}
1000282c:	1e62      	subs	r2, r4, #1
1000282e:	2c01      	cmp	r4, #1
10002830:	d006      	beq.n	10002840 <_ntoa_format+0xca>
10002832:	9f0f      	ldr	r7, [sp, #60]	; 0x3c
10002834:	2f10      	cmp	r7, #16
10002836:	d001      	beq.n	1000283c <_ntoa_format+0xc6>
10002838:	0014      	movs	r4, r2
1000283a:	e7d4      	b.n	100027e6 <_ntoa_format+0x70>
1000283c:	3c02      	subs	r4, #2
1000283e:	e7d2      	b.n	100027e6 <_ntoa_format+0x70>
10002840:	0014      	movs	r4, r2
10002842:	e7d0      	b.n	100027e6 <_ntoa_format+0x70>
10002844:	06b2      	lsls	r2, r6, #26
10002846:	d4d1      	bmi.n	100027ec <_ntoa_format+0x76>
10002848:	2c1f      	cmp	r4, #31
1000284a:	d8cf      	bhi.n	100027ec <_ntoa_format+0x76>
1000284c:	2278      	movs	r2, #120	; 0x78
1000284e:	552a      	strb	r2, [r5, r4]
10002850:	3401      	adds	r4, #1
10002852:	e7d1      	b.n	100027f8 <_ntoa_format+0x82>
10002854:	06b2      	lsls	r2, r6, #26
10002856:	d5cc      	bpl.n	100027f2 <_ntoa_format+0x7c>
10002858:	2c1f      	cmp	r4, #31
1000285a:	d8ca      	bhi.n	100027f2 <_ntoa_format+0x7c>
1000285c:	2258      	movs	r2, #88	; 0x58
1000285e:	552a      	strb	r2, [r5, r4]
10002860:	3401      	adds	r4, #1
10002862:	e7c9      	b.n	100027f8 <_ntoa_format+0x82>
10002864:	2c1f      	cmp	r4, #31
10002866:	d8c7      	bhi.n	100027f8 <_ntoa_format+0x82>
10002868:	3260      	adds	r2, #96	; 0x60
1000286a:	552a      	strb	r2, [r5, r4]
1000286c:	3401      	adds	r4, #1
1000286e:	e7c3      	b.n	100027f8 <_ntoa_format+0x82>
10002870:	0772      	lsls	r2, r6, #29
10002872:	d503      	bpl.n	1000287c <_ntoa_format+0x106>
10002874:	222b      	movs	r2, #43	; 0x2b
10002876:	552a      	strb	r2, [r5, r4]
10002878:	3401      	adds	r4, #1
1000287a:	e7ca      	b.n	10002812 <_ntoa_format+0x9c>
1000287c:	0732      	lsls	r2, r6, #28
1000287e:	d5c8      	bpl.n	10002812 <_ntoa_format+0x9c>
10002880:	2220      	movs	r2, #32
10002882:	552a      	strb	r2, [r5, r4]
10002884:	3401      	adds	r4, #1
10002886:	e7c4      	b.n	10002812 <_ntoa_format+0x9c>

10002888 <_ntoa_long>:
10002888:	b5f0      	push	{r4, r5, r6, r7, lr}
1000288a:	46de      	mov	lr, fp
1000288c:	4657      	mov	r7, sl
1000288e:	464e      	mov	r6, r9
10002890:	4645      	mov	r5, r8
10002892:	b5e0      	push	{r5, r6, r7, lr}
10002894:	b093      	sub	sp, #76	; 0x4c
10002896:	4681      	mov	r9, r0
10002898:	468a      	mov	sl, r1
1000289a:	9208      	str	r2, [sp, #32]
1000289c:	9309      	str	r3, [sp, #36]	; 0x24
1000289e:	ab1c      	add	r3, sp, #112	; 0x70
100028a0:	cb10      	ldmia	r3!, {r4}
100028a2:	781b      	ldrb	r3, [r3, #0]
100028a4:	469b      	mov	fp, r3
100028a6:	9d1e      	ldr	r5, [sp, #120]	; 0x78
100028a8:	9b21      	ldr	r3, [sp, #132]	; 0x84
100028aa:	4698      	mov	r8, r3
100028ac:	2c00      	cmp	r4, #0
100028ae:	d103      	bne.n	100028b8 <_ntoa_long+0x30>
100028b0:	2310      	movs	r3, #16
100028b2:	4642      	mov	r2, r8
100028b4:	439a      	bics	r2, r3
100028b6:	4690      	mov	r8, r2
100028b8:	2380      	movs	r3, #128	; 0x80
100028ba:	00db      	lsls	r3, r3, #3
100028bc:	4646      	mov	r6, r8
100028be:	401e      	ands	r6, r3
100028c0:	4642      	mov	r2, r8
100028c2:	421a      	tst	r2, r3
100028c4:	d012      	beq.n	100028ec <_ntoa_long+0x64>
100028c6:	2c00      	cmp	r4, #0
100028c8:	d022      	beq.n	10002910 <_ntoa_long+0x88>
100028ca:	2600      	movs	r6, #0
100028cc:	e00e      	b.n	100028ec <_ntoa_long+0x64>
100028ce:	3330      	adds	r3, #48	; 0x30
100028d0:	b2d9      	uxtb	r1, r3
100028d2:	1c77      	adds	r7, r6, #1
100028d4:	ab0a      	add	r3, sp, #40	; 0x28
100028d6:	5599      	strb	r1, [r3, r6]
100028d8:	0029      	movs	r1, r5
100028da:	0020      	movs	r0, r4
100028dc:	f7fe ff60 	bl	100017a0 <__wrap___aeabi_uidiv>
100028e0:	42ac      	cmp	r4, r5
100028e2:	d316      	bcc.n	10002912 <_ntoa_long+0x8a>
100028e4:	2f1f      	cmp	r7, #31
100028e6:	d814      	bhi.n	10002912 <_ntoa_long+0x8a>
100028e8:	003e      	movs	r6, r7
100028ea:	0004      	movs	r4, r0
100028ec:	0029      	movs	r1, r5
100028ee:	0020      	movs	r0, r4
100028f0:	f7fe ff56 	bl	100017a0 <__wrap___aeabi_uidiv>
100028f4:	b2cb      	uxtb	r3, r1
100028f6:	2b09      	cmp	r3, #9
100028f8:	d9e9      	bls.n	100028ce <_ntoa_long+0x46>
100028fa:	4642      	mov	r2, r8
100028fc:	0692      	lsls	r2, r2, #26
100028fe:	d505      	bpl.n	1000290c <_ntoa_long+0x84>
10002900:	2141      	movs	r1, #65	; 0x41
10002902:	18c9      	adds	r1, r1, r3
10002904:	b2c9      	uxtb	r1, r1
10002906:	390a      	subs	r1, #10
10002908:	b2c9      	uxtb	r1, r1
1000290a:	e7e2      	b.n	100028d2 <_ntoa_long+0x4a>
1000290c:	2161      	movs	r1, #97	; 0x61
1000290e:	e7f8      	b.n	10002902 <_ntoa_long+0x7a>
10002910:	0027      	movs	r7, r4
10002912:	4643      	mov	r3, r8
10002914:	9306      	str	r3, [sp, #24]
10002916:	9b20      	ldr	r3, [sp, #128]	; 0x80
10002918:	9305      	str	r3, [sp, #20]
1000291a:	9b1f      	ldr	r3, [sp, #124]	; 0x7c
1000291c:	9304      	str	r3, [sp, #16]
1000291e:	9503      	str	r5, [sp, #12]
10002920:	465b      	mov	r3, fp
10002922:	9302      	str	r3, [sp, #8]
10002924:	9701      	str	r7, [sp, #4]
10002926:	ab0a      	add	r3, sp, #40	; 0x28
10002928:	9300      	str	r3, [sp, #0]
1000292a:	9b09      	ldr	r3, [sp, #36]	; 0x24
1000292c:	9a08      	ldr	r2, [sp, #32]
1000292e:	4651      	mov	r1, sl
10002930:	4648      	mov	r0, r9
10002932:	f7ff ff20 	bl	10002776 <_ntoa_format>
10002936:	b013      	add	sp, #76	; 0x4c
10002938:	bcf0      	pop	{r4, r5, r6, r7}
1000293a:	46bb      	mov	fp, r7
1000293c:	46b2      	mov	sl, r6
1000293e:	46a9      	mov	r9, r5
10002940:	46a0      	mov	r8, r4
10002942:	bdf0      	pop	{r4, r5, r6, r7, pc}

10002944 <_ntoa_long_long>:
10002944:	b5f0      	push	{r4, r5, r6, r7, lr}
10002946:	46de      	mov	lr, fp
10002948:	4657      	mov	r7, sl
1000294a:	464e      	mov	r6, r9
1000294c:	4645      	mov	r5, r8
1000294e:	b5e0      	push	{r5, r6, r7, lr}
10002950:	b095      	sub	sp, #84	; 0x54
10002952:	9008      	str	r0, [sp, #32]
10002954:	9109      	str	r1, [sp, #36]	; 0x24
10002956:	920a      	str	r2, [sp, #40]	; 0x28
10002958:	930b      	str	r3, [sp, #44]	; 0x2c
1000295a:	9e1e      	ldr	r6, [sp, #120]	; 0x78
1000295c:	9c1f      	ldr	r4, [sp, #124]	; 0x7c
1000295e:	ab20      	add	r3, sp, #128	; 0x80
10002960:	781b      	ldrb	r3, [r3, #0]
10002962:	469b      	mov	fp, r3
10002964:	9b22      	ldr	r3, [sp, #136]	; 0x88
10002966:	4699      	mov	r9, r3
10002968:	9d23      	ldr	r5, [sp, #140]	; 0x8c
1000296a:	9b26      	ldr	r3, [sp, #152]	; 0x98
1000296c:	469a      	mov	sl, r3
1000296e:	0033      	movs	r3, r6
10002970:	4323      	orrs	r3, r4
10002972:	d103      	bne.n	1000297c <_ntoa_long_long+0x38>
10002974:	3310      	adds	r3, #16
10002976:	4652      	mov	r2, sl
10002978:	439a      	bics	r2, r3
1000297a:	4692      	mov	sl, r2
1000297c:	2380      	movs	r3, #128	; 0x80
1000297e:	00db      	lsls	r3, r3, #3
10002980:	4657      	mov	r7, sl
10002982:	401f      	ands	r7, r3
10002984:	4652      	mov	r2, sl
10002986:	421a      	tst	r2, r3
10002988:	d019      	beq.n	100029be <_ntoa_long_long+0x7a>
1000298a:	0033      	movs	r3, r6
1000298c:	4323      	orrs	r3, r4
1000298e:	d02d      	beq.n	100029ec <_ntoa_long_long+0xa8>
10002990:	2700      	movs	r7, #0
10002992:	e014      	b.n	100029be <_ntoa_long_long+0x7a>
10002994:	3330      	adds	r3, #48	; 0x30
10002996:	b2da      	uxtb	r2, r3
10002998:	1c7b      	adds	r3, r7, #1
1000299a:	4698      	mov	r8, r3
1000299c:	ab0c      	add	r3, sp, #48	; 0x30
1000299e:	55da      	strb	r2, [r3, r7]
100029a0:	464a      	mov	r2, r9
100029a2:	002b      	movs	r3, r5
100029a4:	0030      	movs	r0, r6
100029a6:	0021      	movs	r1, r4
100029a8:	f7fe ff38 	bl	1000181c <__wrap___aeabi_uldivmod>
100029ac:	42a5      	cmp	r5, r4
100029ae:	d81f      	bhi.n	100029f0 <_ntoa_long_long+0xac>
100029b0:	d019      	beq.n	100029e6 <_ntoa_long_long+0xa2>
100029b2:	4643      	mov	r3, r8
100029b4:	2b1f      	cmp	r3, #31
100029b6:	d81b      	bhi.n	100029f0 <_ntoa_long_long+0xac>
100029b8:	4647      	mov	r7, r8
100029ba:	0006      	movs	r6, r0
100029bc:	000c      	movs	r4, r1
100029be:	464a      	mov	r2, r9
100029c0:	002b      	movs	r3, r5
100029c2:	0030      	movs	r0, r6
100029c4:	0021      	movs	r1, r4
100029c6:	f7fe ff29 	bl	1000181c <__wrap___aeabi_uldivmod>
100029ca:	b2d3      	uxtb	r3, r2
100029cc:	2b09      	cmp	r3, #9
100029ce:	d9e1      	bls.n	10002994 <_ntoa_long_long+0x50>
100029d0:	4652      	mov	r2, sl
100029d2:	0692      	lsls	r2, r2, #26
100029d4:	d505      	bpl.n	100029e2 <_ntoa_long_long+0x9e>
100029d6:	2241      	movs	r2, #65	; 0x41
100029d8:	18d2      	adds	r2, r2, r3
100029da:	b2d2      	uxtb	r2, r2
100029dc:	3a0a      	subs	r2, #10
100029de:	b2d2      	uxtb	r2, r2
100029e0:	e7da      	b.n	10002998 <_ntoa_long_long+0x54>
100029e2:	2261      	movs	r2, #97	; 0x61
100029e4:	e7f8      	b.n	100029d8 <_ntoa_long_long+0x94>
100029e6:	45b1      	cmp	r9, r6
100029e8:	d9e3      	bls.n	100029b2 <_ntoa_long_long+0x6e>
100029ea:	e001      	b.n	100029f0 <_ntoa_long_long+0xac>
100029ec:	2300      	movs	r3, #0
100029ee:	4698      	mov	r8, r3
100029f0:	4653      	mov	r3, sl
100029f2:	9306      	str	r3, [sp, #24]
100029f4:	9b25      	ldr	r3, [sp, #148]	; 0x94
100029f6:	9305      	str	r3, [sp, #20]
100029f8:	9b24      	ldr	r3, [sp, #144]	; 0x90
100029fa:	9304      	str	r3, [sp, #16]
100029fc:	464b      	mov	r3, r9
100029fe:	9303      	str	r3, [sp, #12]
10002a00:	465b      	mov	r3, fp
10002a02:	9302      	str	r3, [sp, #8]
10002a04:	4643      	mov	r3, r8
10002a06:	9301      	str	r3, [sp, #4]
10002a08:	ab0c      	add	r3, sp, #48	; 0x30
10002a0a:	9300      	str	r3, [sp, #0]
10002a0c:	9b0b      	ldr	r3, [sp, #44]	; 0x2c
10002a0e:	9a0a      	ldr	r2, [sp, #40]	; 0x28
10002a10:	9909      	ldr	r1, [sp, #36]	; 0x24
10002a12:	9808      	ldr	r0, [sp, #32]
10002a14:	f7ff feaf 	bl	10002776 <_ntoa_format>
10002a18:	b015      	add	sp, #84	; 0x54
10002a1a:	bcf0      	pop	{r4, r5, r6, r7}
10002a1c:	46bb      	mov	fp, r7
10002a1e:	46b2      	mov	sl, r6
10002a20:	46a9      	mov	r9, r5
10002a22:	46a0      	mov	r8, r4
10002a24:	bdf0      	pop	{r4, r5, r6, r7, pc}
	...

10002a28 <_etoa>:
10002a28:	b5f0      	push	{r4, r5, r6, r7, lr}
10002a2a:	46de      	mov	lr, fp
10002a2c:	4657      	mov	r7, sl
10002a2e:	464e      	mov	r6, r9
10002a30:	4645      	mov	r5, r8
10002a32:	b5e0      	push	{r5, r6, r7, lr}
10002a34:	b091      	sub	sp, #68	; 0x44
10002a36:	4683      	mov	fp, r0
10002a38:	468a      	mov	sl, r1
10002a3a:	920c      	str	r2, [sp, #48]	; 0x30
10002a3c:	4698      	mov	r8, r3
10002a3e:	9c1a      	ldr	r4, [sp, #104]	; 0x68
10002a40:	9408      	str	r4, [sp, #32]
10002a42:	9d1b      	ldr	r5, [sp, #108]	; 0x6c
10002a44:	9509      	str	r5, [sp, #36]	; 0x24
10002a46:	0022      	movs	r2, r4
10002a48:	002b      	movs	r3, r5
10002a4a:	0020      	movs	r0, r4
10002a4c:	0029      	movs	r1, r5
10002a4e:	f7ff f970 	bl	10001d32 <__wrap___aeabi_dcmpun>
10002a52:	2800      	cmp	r0, #0
10002a54:	d000      	beq.n	10002a58 <_etoa+0x30>
10002a56:	e0e5      	b.n	10002c24 <_etoa+0x1fc>
10002a58:	2201      	movs	r2, #1
10002a5a:	4252      	negs	r2, r2
10002a5c:	4bd7      	ldr	r3, [pc, #860]	; (10002dbc <_etoa+0x394>)
10002a5e:	0020      	movs	r0, r4
10002a60:	0029      	movs	r1, r5
10002a62:	f7ff f961 	bl	10001d28 <__wrap___aeabi_dcmpgt>
10002a66:	2800      	cmp	r0, #0
10002a68:	d000      	beq.n	10002a6c <_etoa+0x44>
10002a6a:	e0db      	b.n	10002c24 <_etoa+0x1fc>
10002a6c:	2201      	movs	r2, #1
10002a6e:	4252      	negs	r2, r2
10002a70:	4bd3      	ldr	r3, [pc, #844]	; (10002dc0 <_etoa+0x398>)
10002a72:	0020      	movs	r0, r4
10002a74:	0029      	movs	r1, r5
10002a76:	f7ff f941 	bl	10001cfc <__wrap___aeabi_dcmplt>
10002a7a:	2800      	cmp	r0, #0
10002a7c:	d000      	beq.n	10002a80 <_etoa+0x58>
10002a7e:	e0d1      	b.n	10002c24 <_etoa+0x1fc>
10002a80:	2200      	movs	r2, #0
10002a82:	2300      	movs	r3, #0
10002a84:	9e08      	ldr	r6, [sp, #32]
10002a86:	0030      	movs	r0, r6
10002a88:	9d09      	ldr	r5, [sp, #36]	; 0x24
10002a8a:	0029      	movs	r1, r5
10002a8c:	f7ff f936 	bl	10001cfc <__wrap___aeabi_dcmplt>
10002a90:	2800      	cmp	r0, #0
10002a92:	d000      	beq.n	10002a96 <_etoa+0x6e>
10002a94:	e0dd      	b.n	10002c52 <_etoa+0x22a>
10002a96:	9808      	ldr	r0, [sp, #32]
10002a98:	9909      	ldr	r1, [sp, #36]	; 0x24
10002a9a:	9006      	str	r0, [sp, #24]
10002a9c:	9107      	str	r1, [sp, #28]
10002a9e:	2380      	movs	r3, #128	; 0x80
10002aa0:	00db      	lsls	r3, r3, #3
10002aa2:	9a1e      	ldr	r2, [sp, #120]	; 0x78
10002aa4:	401a      	ands	r2, r3
10002aa6:	920d      	str	r2, [sp, #52]	; 0x34
10002aa8:	9a1e      	ldr	r2, [sp, #120]	; 0x78
10002aaa:	421a      	tst	r2, r3
10002aac:	d101      	bne.n	10002ab2 <_etoa+0x8a>
10002aae:	2306      	movs	r3, #6
10002ab0:	931c      	str	r3, [sp, #112]	; 0x70
10002ab2:	9806      	ldr	r0, [sp, #24]
10002ab4:	9907      	ldr	r1, [sp, #28]
10002ab6:	0004      	movs	r4, r0
10002ab8:	000d      	movs	r5, r1
10002aba:	000a      	movs	r2, r1
10002abc:	0006      	movs	r6, r0
10002abe:	4302      	orrs	r2, r0
10002ac0:	d100      	bne.n	10002ac4 <_etoa+0x9c>
10002ac2:	e0d1      	b.n	10002c68 <_etoa+0x240>
10002ac4:	0d08      	lsrs	r0, r1, #20
10002ac6:	0540      	lsls	r0, r0, #21
10002ac8:	0d40      	lsrs	r0, r0, #21
10002aca:	4cbe      	ldr	r4, [pc, #760]	; (10002dc4 <_etoa+0x39c>)
10002acc:	46a4      	mov	ip, r4
10002ace:	4460      	add	r0, ip
10002ad0:	030a      	lsls	r2, r1, #12
10002ad2:	0b12      	lsrs	r2, r2, #12
10002ad4:	4bbc      	ldr	r3, [pc, #752]	; (10002dc8 <_etoa+0x3a0>)
10002ad6:	4313      	orrs	r3, r2
10002ad8:	001f      	movs	r7, r3
10002ada:	f7ff f93b 	bl	10001d54 <__wrap___aeabi_i2d>
10002ade:	4abb      	ldr	r2, [pc, #748]	; (10002dcc <_etoa+0x3a4>)
10002ae0:	4bbb      	ldr	r3, [pc, #748]	; (10002dd0 <_etoa+0x3a8>)
10002ae2:	f7ff f8c8 	bl	10001c76 <__wrap___aeabi_dmul>
10002ae6:	4abb      	ldr	r2, [pc, #748]	; (10002dd4 <_etoa+0x3ac>)
10002ae8:	4bbb      	ldr	r3, [pc, #748]	; (10002dd8 <_etoa+0x3b0>)
10002aea:	f7ff f89d 	bl	10001c28 <__wrap___aeabi_dadd>
10002aee:	0004      	movs	r4, r0
10002af0:	000d      	movs	r5, r1
10002af2:	2200      	movs	r2, #0
10002af4:	4bb9      	ldr	r3, [pc, #740]	; (10002ddc <_etoa+0x3b4>)
10002af6:	0030      	movs	r0, r6
10002af8:	0039      	movs	r1, r7
10002afa:	f7ff f88c 	bl	10001c16 <__wrap___aeabi_dsub>
10002afe:	4ab8      	ldr	r2, [pc, #736]	; (10002de0 <_etoa+0x3b8>)
10002b00:	4bb8      	ldr	r3, [pc, #736]	; (10002de4 <_etoa+0x3bc>)
10002b02:	f7ff f8b8 	bl	10001c76 <__wrap___aeabi_dmul>
10002b06:	0002      	movs	r2, r0
10002b08:	000b      	movs	r3, r1
10002b0a:	0020      	movs	r0, r4
10002b0c:	0029      	movs	r1, r5
10002b0e:	f7ff f88b 	bl	10001c28 <__wrap___aeabi_dadd>
10002b12:	f7ff f937 	bl	10001d84 <__wrap___aeabi_d2iz>
10002b16:	4681      	mov	r9, r0
10002b18:	f7ff f91c 	bl	10001d54 <__wrap___aeabi_i2d>
10002b1c:	0004      	movs	r4, r0
10002b1e:	000d      	movs	r5, r1
10002b20:	4ab1      	ldr	r2, [pc, #708]	; (10002de8 <_etoa+0x3c0>)
10002b22:	4bb2      	ldr	r3, [pc, #712]	; (10002dec <_etoa+0x3c4>)
10002b24:	f7ff f8a7 	bl	10001c76 <__wrap___aeabi_dmul>
10002b28:	2200      	movs	r2, #0
10002b2a:	4bb1      	ldr	r3, [pc, #708]	; (10002df0 <_etoa+0x3c8>)
10002b2c:	f7ff f87c 	bl	10001c28 <__wrap___aeabi_dadd>
10002b30:	f7ff f928 	bl	10001d84 <__wrap___aeabi_d2iz>
10002b34:	0006      	movs	r6, r0
10002b36:	4aaf      	ldr	r2, [pc, #700]	; (10002df4 <_etoa+0x3cc>)
10002b38:	4baf      	ldr	r3, [pc, #700]	; (10002df8 <_etoa+0x3d0>)
10002b3a:	0020      	movs	r0, r4
10002b3c:	0029      	movs	r1, r5
10002b3e:	f7ff f89a 	bl	10001c76 <__wrap___aeabi_dmul>
10002b42:	0004      	movs	r4, r0
10002b44:	000d      	movs	r5, r1
10002b46:	0030      	movs	r0, r6
10002b48:	f7ff f904 	bl	10001d54 <__wrap___aeabi_i2d>
10002b4c:	4aab      	ldr	r2, [pc, #684]	; (10002dfc <_etoa+0x3d4>)
10002b4e:	4bac      	ldr	r3, [pc, #688]	; (10002e00 <_etoa+0x3d8>)
10002b50:	f7ff f891 	bl	10001c76 <__wrap___aeabi_dmul>
10002b54:	0002      	movs	r2, r0
10002b56:	000b      	movs	r3, r1
10002b58:	0020      	movs	r0, r4
10002b5a:	0029      	movs	r1, r5
10002b5c:	f7ff f85b 	bl	10001c16 <__wrap___aeabi_dsub>
10002b60:	0004      	movs	r4, r0
10002b62:	000d      	movs	r5, r1
10002b64:	0002      	movs	r2, r0
10002b66:	000b      	movs	r3, r1
10002b68:	f7ff f885 	bl	10001c76 <__wrap___aeabi_dmul>
10002b6c:	900a      	str	r0, [sp, #40]	; 0x28
10002b6e:	910b      	str	r1, [sp, #44]	; 0x2c
10002b70:	4ba4      	ldr	r3, [pc, #656]	; (10002e04 <_etoa+0x3dc>)
10002b72:	18f3      	adds	r3, r6, r3
10002b74:	2600      	movs	r6, #0
10002b76:	051f      	lsls	r7, r3, #20
10002b78:	0022      	movs	r2, r4
10002b7a:	002b      	movs	r3, r5
10002b7c:	0020      	movs	r0, r4
10002b7e:	0029      	movs	r1, r5
10002b80:	f7ff f852 	bl	10001c28 <__wrap___aeabi_dadd>
10002b84:	900e      	str	r0, [sp, #56]	; 0x38
10002b86:	910f      	str	r1, [sp, #60]	; 0x3c
10002b88:	0022      	movs	r2, r4
10002b8a:	002b      	movs	r3, r5
10002b8c:	2000      	movs	r0, #0
10002b8e:	2180      	movs	r1, #128	; 0x80
10002b90:	05c9      	lsls	r1, r1, #23
10002b92:	f7ff f840 	bl	10001c16 <__wrap___aeabi_dsub>
10002b96:	0004      	movs	r4, r0
10002b98:	000d      	movs	r5, r1
10002b9a:	2200      	movs	r2, #0
10002b9c:	4b9a      	ldr	r3, [pc, #616]	; (10002e08 <_etoa+0x3e0>)
10002b9e:	980a      	ldr	r0, [sp, #40]	; 0x28
10002ba0:	990b      	ldr	r1, [sp, #44]	; 0x2c
10002ba2:	f7ff f84a 	bl	10001c3a <__wrap___aeabi_ddiv>
10002ba6:	2200      	movs	r2, #0
10002ba8:	4b98      	ldr	r3, [pc, #608]	; (10002e0c <_etoa+0x3e4>)
10002baa:	f7ff f83d 	bl	10001c28 <__wrap___aeabi_dadd>
10002bae:	0002      	movs	r2, r0
10002bb0:	000b      	movs	r3, r1
10002bb2:	980a      	ldr	r0, [sp, #40]	; 0x28
10002bb4:	990b      	ldr	r1, [sp, #44]	; 0x2c
10002bb6:	f7ff f840 	bl	10001c3a <__wrap___aeabi_ddiv>
10002bba:	2200      	movs	r2, #0
10002bbc:	4b94      	ldr	r3, [pc, #592]	; (10002e10 <_etoa+0x3e8>)
10002bbe:	f7ff f833 	bl	10001c28 <__wrap___aeabi_dadd>
10002bc2:	0002      	movs	r2, r0
10002bc4:	000b      	movs	r3, r1
10002bc6:	980a      	ldr	r0, [sp, #40]	; 0x28
10002bc8:	990b      	ldr	r1, [sp, #44]	; 0x2c
10002bca:	f7ff f836 	bl	10001c3a <__wrap___aeabi_ddiv>
10002bce:	0002      	movs	r2, r0
10002bd0:	000b      	movs	r3, r1
10002bd2:	0020      	movs	r0, r4
10002bd4:	0029      	movs	r1, r5
10002bd6:	f7ff f827 	bl	10001c28 <__wrap___aeabi_dadd>
10002bda:	0002      	movs	r2, r0
10002bdc:	000b      	movs	r3, r1
10002bde:	980e      	ldr	r0, [sp, #56]	; 0x38
10002be0:	990f      	ldr	r1, [sp, #60]	; 0x3c
10002be2:	f7ff f82a 	bl	10001c3a <__wrap___aeabi_ddiv>
10002be6:	2200      	movs	r2, #0
10002be8:	4b77      	ldr	r3, [pc, #476]	; (10002dc8 <_etoa+0x3a0>)
10002bea:	f7ff f81d 	bl	10001c28 <__wrap___aeabi_dadd>
10002bee:	0032      	movs	r2, r6
10002bf0:	003b      	movs	r3, r7
10002bf2:	f7ff f840 	bl	10001c76 <__wrap___aeabi_dmul>
10002bf6:	0006      	movs	r6, r0
10002bf8:	000f      	movs	r7, r1
10002bfa:	0004      	movs	r4, r0
10002bfc:	000d      	movs	r5, r1
10002bfe:	9a06      	ldr	r2, [sp, #24]
10002c00:	9b07      	ldr	r3, [sp, #28]
10002c02:	f7ff f891 	bl	10001d28 <__wrap___aeabi_dcmpgt>
10002c06:	2800      	cmp	r0, #0
10002c08:	d030      	beq.n	10002c6c <_etoa+0x244>
10002c0a:	2301      	movs	r3, #1
10002c0c:	425b      	negs	r3, r3
10002c0e:	469c      	mov	ip, r3
10002c10:	44e1      	add	r9, ip
10002c12:	2200      	movs	r2, #0
10002c14:	4b7d      	ldr	r3, [pc, #500]	; (10002e0c <_etoa+0x3e4>)
10002c16:	0030      	movs	r0, r6
10002c18:	0039      	movs	r1, r7
10002c1a:	f7ff f80e 	bl	10001c3a <__wrap___aeabi_ddiv>
10002c1e:	0004      	movs	r4, r0
10002c20:	000d      	movs	r5, r1
10002c22:	e023      	b.n	10002c6c <_etoa+0x244>
10002c24:	9b1e      	ldr	r3, [sp, #120]	; 0x78
10002c26:	9304      	str	r3, [sp, #16]
10002c28:	9b1d      	ldr	r3, [sp, #116]	; 0x74
10002c2a:	9303      	str	r3, [sp, #12]
10002c2c:	9b1c      	ldr	r3, [sp, #112]	; 0x70
10002c2e:	9302      	str	r3, [sp, #8]
10002c30:	9a08      	ldr	r2, [sp, #32]
10002c32:	9b09      	ldr	r3, [sp, #36]	; 0x24
10002c34:	9200      	str	r2, [sp, #0]
10002c36:	9301      	str	r3, [sp, #4]
10002c38:	4643      	mov	r3, r8
10002c3a:	9a0c      	ldr	r2, [sp, #48]	; 0x30
10002c3c:	4651      	mov	r1, sl
10002c3e:	4658      	mov	r0, fp
10002c40:	f000 f8fc 	bl	10002e3c <_ftoa>
10002c44:	b011      	add	sp, #68	; 0x44
10002c46:	bcf0      	pop	{r4, r5, r6, r7}
10002c48:	46bb      	mov	fp, r7
10002c4a:	46b2      	mov	sl, r6
10002c4c:	46a9      	mov	r9, r5
10002c4e:	46a0      	mov	r8, r4
10002c50:	bdf0      	pop	{r4, r5, r6, r7, pc}
10002c52:	2300      	movs	r3, #0
10002c54:	2400      	movs	r4, #0
10002c56:	9306      	str	r3, [sp, #24]
10002c58:	9407      	str	r4, [sp, #28]
10002c5a:	9606      	str	r6, [sp, #24]
10002c5c:	2380      	movs	r3, #128	; 0x80
10002c5e:	061b      	lsls	r3, r3, #24
10002c60:	469c      	mov	ip, r3
10002c62:	4465      	add	r5, ip
10002c64:	9507      	str	r5, [sp, #28]
10002c66:	e71a      	b.n	10002a9e <_etoa+0x76>
10002c68:	2300      	movs	r3, #0
10002c6a:	4699      	mov	r9, r3
10002c6c:	464b      	mov	r3, r9
10002c6e:	3363      	adds	r3, #99	; 0x63
10002c70:	2bc6      	cmp	r3, #198	; 0xc6
10002c72:	d81e      	bhi.n	10002cb2 <_etoa+0x28a>
10002c74:	2604      	movs	r6, #4
10002c76:	9b1e      	ldr	r3, [sp, #120]	; 0x78
10002c78:	051b      	lsls	r3, r3, #20
10002c7a:	d526      	bpl.n	10002cca <_etoa+0x2a2>
10002c7c:	002b      	movs	r3, r5
10002c7e:	4323      	orrs	r3, r4
10002c80:	d00f      	beq.n	10002ca2 <_etoa+0x27a>
10002c82:	4a64      	ldr	r2, [pc, #400]	; (10002e14 <_etoa+0x3ec>)
10002c84:	4b64      	ldr	r3, [pc, #400]	; (10002e18 <_etoa+0x3f0>)
10002c86:	9806      	ldr	r0, [sp, #24]
10002c88:	9907      	ldr	r1, [sp, #28]
10002c8a:	f7ff f845 	bl	10001d18 <__wrap___aeabi_dcmpge>
10002c8e:	2800      	cmp	r0, #0
10002c90:	d079      	beq.n	10002d86 <_etoa+0x35e>
10002c92:	2200      	movs	r2, #0
10002c94:	4b61      	ldr	r3, [pc, #388]	; (10002e1c <_etoa+0x3f4>)
10002c96:	9806      	ldr	r0, [sp, #24]
10002c98:	9907      	ldr	r1, [sp, #28]
10002c9a:	f7ff f82f 	bl	10001cfc <__wrap___aeabi_dcmplt>
10002c9e:	2800      	cmp	r0, #0
10002ca0:	d071      	beq.n	10002d86 <_etoa+0x35e>
10002ca2:	9b1c      	ldr	r3, [sp, #112]	; 0x70
10002ca4:	454b      	cmp	r3, r9
10002ca6:	dd06      	ble.n	10002cb6 <_etoa+0x28e>
10002ca8:	464a      	mov	r2, r9
10002caa:	1a98      	subs	r0, r3, r2
10002cac:	1e43      	subs	r3, r0, #1
10002cae:	931c      	str	r3, [sp, #112]	; 0x70
10002cb0:	e003      	b.n	10002cba <_etoa+0x292>
10002cb2:	2605      	movs	r6, #5
10002cb4:	e7df      	b.n	10002c76 <_etoa+0x24e>
10002cb6:	2300      	movs	r3, #0
10002cb8:	931c      	str	r3, [sp, #112]	; 0x70
10002cba:	2380      	movs	r3, #128	; 0x80
10002cbc:	00db      	lsls	r3, r3, #3
10002cbe:	9a1e      	ldr	r2, [sp, #120]	; 0x78
10002cc0:	431a      	orrs	r2, r3
10002cc2:	921e      	str	r2, [sp, #120]	; 0x78
10002cc4:	2600      	movs	r6, #0
10002cc6:	2300      	movs	r3, #0
10002cc8:	4699      	mov	r9, r3
10002cca:	9b1d      	ldr	r3, [sp, #116]	; 0x74
10002ccc:	429e      	cmp	r6, r3
10002cce:	d264      	bcs.n	10002d9a <_etoa+0x372>
10002cd0:	1b9f      	subs	r7, r3, r6
10002cd2:	2302      	movs	r3, #2
10002cd4:	9a1e      	ldr	r2, [sp, #120]	; 0x78
10002cd6:	401a      	ands	r2, r3
10002cd8:	920a      	str	r2, [sp, #40]	; 0x28
10002cda:	9a1e      	ldr	r2, [sp, #120]	; 0x78
10002cdc:	4213      	tst	r3, r2
10002cde:	d002      	beq.n	10002ce6 <_etoa+0x2be>
10002ce0:	2e00      	cmp	r6, #0
10002ce2:	d000      	beq.n	10002ce6 <_etoa+0x2be>
10002ce4:	2700      	movs	r7, #0
10002ce6:	464b      	mov	r3, r9
10002ce8:	2b00      	cmp	r3, #0
10002cea:	d007      	beq.n	10002cfc <_etoa+0x2d4>
10002cec:	0022      	movs	r2, r4
10002cee:	002b      	movs	r3, r5
10002cf0:	9806      	ldr	r0, [sp, #24]
10002cf2:	9907      	ldr	r1, [sp, #28]
10002cf4:	f7fe ffa1 	bl	10001c3a <__wrap___aeabi_ddiv>
10002cf8:	9006      	str	r0, [sp, #24]
10002cfa:	9107      	str	r1, [sp, #28]
10002cfc:	2200      	movs	r2, #0
10002cfe:	2300      	movs	r3, #0
10002d00:	9808      	ldr	r0, [sp, #32]
10002d02:	9909      	ldr	r1, [sp, #36]	; 0x24
10002d04:	f7fe fffa 	bl	10001cfc <__wrap___aeabi_dcmplt>
10002d08:	2800      	cmp	r0, #0
10002d0a:	d148      	bne.n	10002d9e <_etoa+0x376>
10002d0c:	4b44      	ldr	r3, [pc, #272]	; (10002e20 <_etoa+0x3f8>)
10002d0e:	9a1e      	ldr	r2, [sp, #120]	; 0x78
10002d10:	4013      	ands	r3, r2
10002d12:	9304      	str	r3, [sp, #16]
10002d14:	9703      	str	r7, [sp, #12]
10002d16:	9b1c      	ldr	r3, [sp, #112]	; 0x70
10002d18:	9302      	str	r3, [sp, #8]
10002d1a:	9b06      	ldr	r3, [sp, #24]
10002d1c:	9c07      	ldr	r4, [sp, #28]
10002d1e:	9300      	str	r3, [sp, #0]
10002d20:	9401      	str	r4, [sp, #4]
10002d22:	4643      	mov	r3, r8
10002d24:	9a0c      	ldr	r2, [sp, #48]	; 0x30
10002d26:	4651      	mov	r1, sl
10002d28:	4658      	mov	r0, fp
10002d2a:	f000 f887 	bl	10002e3c <_ftoa>
10002d2e:	2e00      	cmp	r6, #0
10002d30:	d100      	bne.n	10002d34 <_etoa+0x30c>
10002d32:	e787      	b.n	10002c44 <_etoa+0x21c>
10002d34:	9b1e      	ldr	r3, [sp, #120]	; 0x78
10002d36:	069b      	lsls	r3, r3, #26
10002d38:	d53d      	bpl.n	10002db6 <_etoa+0x38e>
10002d3a:	2545      	movs	r5, #69	; 0x45
10002d3c:	1c44      	adds	r4, r0, #1
10002d3e:	4643      	mov	r3, r8
10002d40:	0002      	movs	r2, r0
10002d42:	4651      	mov	r1, sl
10002d44:	0028      	movs	r0, r5
10002d46:	47d8      	blx	fp
10002d48:	464b      	mov	r3, r9
10002d4a:	17da      	asrs	r2, r3, #31
10002d4c:	189b      	adds	r3, r3, r2
10002d4e:	4053      	eors	r3, r2
10002d50:	2205      	movs	r2, #5
10002d52:	9205      	str	r2, [sp, #20]
10002d54:	3e01      	subs	r6, #1
10002d56:	9604      	str	r6, [sp, #16]
10002d58:	2200      	movs	r2, #0
10002d5a:	9203      	str	r2, [sp, #12]
10002d5c:	320a      	adds	r2, #10
10002d5e:	9202      	str	r2, [sp, #8]
10002d60:	464a      	mov	r2, r9
10002d62:	0fd0      	lsrs	r0, r2, #31
10002d64:	9001      	str	r0, [sp, #4]
10002d66:	9300      	str	r3, [sp, #0]
10002d68:	4643      	mov	r3, r8
10002d6a:	0022      	movs	r2, r4
10002d6c:	4651      	mov	r1, sl
10002d6e:	4658      	mov	r0, fp
10002d70:	f7ff fd8a 	bl	10002888 <_ntoa_long>
10002d74:	9b0a      	ldr	r3, [sp, #40]	; 0x28
10002d76:	2b00      	cmp	r3, #0
10002d78:	d100      	bne.n	10002d7c <_etoa+0x354>
10002d7a:	e763      	b.n	10002c44 <_etoa+0x21c>
10002d7c:	0002      	movs	r2, r0
10002d7e:	465f      	mov	r7, fp
10002d80:	9e0c      	ldr	r6, [sp, #48]	; 0x30
10002d82:	9d1d      	ldr	r5, [sp, #116]	; 0x74
10002d84:	e054      	b.n	10002e30 <_etoa+0x408>
10002d86:	9b1c      	ldr	r3, [sp, #112]	; 0x70
10002d88:	2b00      	cmp	r3, #0
10002d8a:	d09e      	beq.n	10002cca <_etoa+0x2a2>
10002d8c:	9b0d      	ldr	r3, [sp, #52]	; 0x34
10002d8e:	2b00      	cmp	r3, #0
10002d90:	d09b      	beq.n	10002cca <_etoa+0x2a2>
10002d92:	9b1c      	ldr	r3, [sp, #112]	; 0x70
10002d94:	3b01      	subs	r3, #1
10002d96:	931c      	str	r3, [sp, #112]	; 0x70
10002d98:	e797      	b.n	10002cca <_etoa+0x2a2>
10002d9a:	2700      	movs	r7, #0
10002d9c:	e799      	b.n	10002cd2 <_etoa+0x2aa>
10002d9e:	9c06      	ldr	r4, [sp, #24]
10002da0:	9d07      	ldr	r5, [sp, #28]
10002da2:	0022      	movs	r2, r4
10002da4:	0029      	movs	r1, r5
10002da6:	2080      	movs	r0, #128	; 0x80
10002da8:	0600      	lsls	r0, r0, #24
10002daa:	4684      	mov	ip, r0
10002dac:	4461      	add	r1, ip
10002dae:	000b      	movs	r3, r1
10002db0:	9206      	str	r2, [sp, #24]
10002db2:	9307      	str	r3, [sp, #28]
10002db4:	e7aa      	b.n	10002d0c <_etoa+0x2e4>
10002db6:	2565      	movs	r5, #101	; 0x65
10002db8:	e7c0      	b.n	10002d3c <_etoa+0x314>
10002dba:	46c0      	nop			; (mov r8, r8)
10002dbc:	7fefffff 	.word	0x7fefffff
10002dc0:	ffefffff 	.word	0xffefffff
10002dc4:	fffffc01 	.word	0xfffffc01
10002dc8:	3ff00000 	.word	0x3ff00000
10002dcc:	509f79fb 	.word	0x509f79fb
10002dd0:	3fd34413 	.word	0x3fd34413
10002dd4:	8b60c8b3 	.word	0x8b60c8b3
10002dd8:	3fc68a28 	.word	0x3fc68a28
10002ddc:	3ff80000 	.word	0x3ff80000
10002de0:	636f4361 	.word	0x636f4361
10002de4:	3fd287a7 	.word	0x3fd287a7
10002de8:	0979a371 	.word	0x0979a371
10002dec:	400a934f 	.word	0x400a934f
10002df0:	3fe00000 	.word	0x3fe00000
10002df4:	bbb55516 	.word	0xbbb55516
10002df8:	40026bb1 	.word	0x40026bb1
10002dfc:	fefa39ef 	.word	0xfefa39ef
10002e00:	3fe62e42 	.word	0x3fe62e42
10002e04:	000003ff 	.word	0x000003ff
10002e08:	402c0000 	.word	0x402c0000
10002e0c:	40240000 	.word	0x40240000
10002e10:	40180000 	.word	0x40180000
10002e14:	eb1c432d 	.word	0xeb1c432d
10002e18:	3f1a36e2 	.word	0x3f1a36e2
10002e1c:	412e8480 	.word	0x412e8480
10002e20:	fffff7ff 	.word	0xfffff7ff
10002e24:	1c54      	adds	r4, r2, #1
10002e26:	4643      	mov	r3, r8
10002e28:	4651      	mov	r1, sl
10002e2a:	2020      	movs	r0, #32
10002e2c:	47b8      	blx	r7
10002e2e:	0022      	movs	r2, r4
10002e30:	1b93      	subs	r3, r2, r6
10002e32:	42ab      	cmp	r3, r5
10002e34:	d3f6      	bcc.n	10002e24 <_etoa+0x3fc>
10002e36:	0010      	movs	r0, r2
10002e38:	e704      	b.n	10002c44 <_etoa+0x21c>
10002e3a:	46c0      	nop			; (mov r8, r8)

10002e3c <_ftoa>:
10002e3c:	b5f0      	push	{r4, r5, r6, r7, lr}
10002e3e:	46de      	mov	lr, fp
10002e40:	4657      	mov	r7, sl
10002e42:	464e      	mov	r6, r9
10002e44:	4645      	mov	r5, r8
10002e46:	b5e0      	push	{r5, r6, r7, lr}
10002e48:	b095      	sub	sp, #84	; 0x54
10002e4a:	9006      	str	r0, [sp, #24]
10002e4c:	9107      	str	r1, [sp, #28]
10002e4e:	4693      	mov	fp, r2
10002e50:	4699      	mov	r9, r3
10002e52:	9f20      	ldr	r7, [sp, #128]	; 0x80
10002e54:	9a1e      	ldr	r2, [sp, #120]	; 0x78
10002e56:	9b1f      	ldr	r3, [sp, #124]	; 0x7c
10002e58:	0010      	movs	r0, r2
10002e5a:	0019      	movs	r1, r3
10002e5c:	f7fe ff69 	bl	10001d32 <__wrap___aeabi_dcmpun>
10002e60:	2800      	cmp	r0, #0
10002e62:	d131      	bne.n	10002ec8 <_ftoa+0x8c>
10002e64:	2201      	movs	r2, #1
10002e66:	4252      	negs	r2, r2
10002e68:	4bbf      	ldr	r3, [pc, #764]	; (10003168 <_ftoa+0x32c>)
10002e6a:	981e      	ldr	r0, [sp, #120]	; 0x78
10002e6c:	991f      	ldr	r1, [sp, #124]	; 0x7c
10002e6e:	f7fe ff45 	bl	10001cfc <__wrap___aeabi_dcmplt>
10002e72:	2800      	cmp	r0, #0
10002e74:	d137      	bne.n	10002ee6 <_ftoa+0xaa>
10002e76:	2201      	movs	r2, #1
10002e78:	4252      	negs	r2, r2
10002e7a:	4bbc      	ldr	r3, [pc, #752]	; (1000316c <_ftoa+0x330>)
10002e7c:	981e      	ldr	r0, [sp, #120]	; 0x78
10002e7e:	991f      	ldr	r1, [sp, #124]	; 0x7c
10002e80:	f7fe ff52 	bl	10001d28 <__wrap___aeabi_dcmpgt>
10002e84:	2800      	cmp	r0, #0
10002e86:	d13d      	bne.n	10002f04 <_ftoa+0xc8>
10002e88:	2200      	movs	r2, #0
10002e8a:	4bb9      	ldr	r3, [pc, #740]	; (10003170 <_ftoa+0x334>)
10002e8c:	981e      	ldr	r0, [sp, #120]	; 0x78
10002e8e:	991f      	ldr	r1, [sp, #124]	; 0x7c
10002e90:	f7fe ff4a 	bl	10001d28 <__wrap___aeabi_dcmpgt>
10002e94:	2800      	cmp	r0, #0
10002e96:	d150      	bne.n	10002f3a <_ftoa+0xfe>
10002e98:	2200      	movs	r2, #0
10002e9a:	4bb6      	ldr	r3, [pc, #728]	; (10003174 <_ftoa+0x338>)
10002e9c:	981e      	ldr	r0, [sp, #120]	; 0x78
10002e9e:	991f      	ldr	r1, [sp, #124]	; 0x7c
10002ea0:	f7fe ff2c 	bl	10001cfc <__wrap___aeabi_dcmplt>
10002ea4:	2800      	cmp	r0, #0
10002ea6:	d148      	bne.n	10002f3a <_ftoa+0xfe>
10002ea8:	2200      	movs	r2, #0
10002eaa:	2300      	movs	r3, #0
10002eac:	981e      	ldr	r0, [sp, #120]	; 0x78
10002eae:	991f      	ldr	r1, [sp, #124]	; 0x7c
10002eb0:	f7fe ff24 	bl	10001cfc <__wrap___aeabi_dcmplt>
10002eb4:	2800      	cmp	r0, #0
10002eb6:	d150      	bne.n	10002f5a <_ftoa+0x11e>
10002eb8:	2300      	movs	r3, #0
10002eba:	4698      	mov	r8, r3
10002ebc:	9b22      	ldr	r3, [sp, #136]	; 0x88
10002ebe:	055b      	lsls	r3, r3, #21
10002ec0:	d400      	bmi.n	10002ec4 <_ftoa+0x88>
10002ec2:	e0b6      	b.n	10003032 <_ftoa+0x1f6>
10002ec4:	2400      	movs	r4, #0
10002ec6:	e058      	b.n	10002f7a <_ftoa+0x13e>
10002ec8:	9b22      	ldr	r3, [sp, #136]	; 0x88
10002eca:	9303      	str	r3, [sp, #12]
10002ecc:	9b21      	ldr	r3, [sp, #132]	; 0x84
10002ece:	9302      	str	r3, [sp, #8]
10002ed0:	2303      	movs	r3, #3
10002ed2:	9301      	str	r3, [sp, #4]
10002ed4:	4ba8      	ldr	r3, [pc, #672]	; (10003178 <_ftoa+0x33c>)
10002ed6:	9300      	str	r3, [sp, #0]
10002ed8:	464b      	mov	r3, r9
10002eda:	465a      	mov	r2, fp
10002edc:	9907      	ldr	r1, [sp, #28]
10002ede:	9806      	ldr	r0, [sp, #24]
10002ee0:	f7ff fbf2 	bl	100026c8 <_out_rev>
10002ee4:	e10e      	b.n	10003104 <_ftoa+0x2c8>
10002ee6:	9b22      	ldr	r3, [sp, #136]	; 0x88
10002ee8:	9303      	str	r3, [sp, #12]
10002eea:	9b21      	ldr	r3, [sp, #132]	; 0x84
10002eec:	9302      	str	r3, [sp, #8]
10002eee:	2304      	movs	r3, #4
10002ef0:	9301      	str	r3, [sp, #4]
10002ef2:	4ba2      	ldr	r3, [pc, #648]	; (1000317c <_ftoa+0x340>)
10002ef4:	9300      	str	r3, [sp, #0]
10002ef6:	464b      	mov	r3, r9
10002ef8:	465a      	mov	r2, fp
10002efa:	9907      	ldr	r1, [sp, #28]
10002efc:	9806      	ldr	r0, [sp, #24]
10002efe:	f7ff fbe3 	bl	100026c8 <_out_rev>
10002f02:	e0ff      	b.n	10003104 <_ftoa+0x2c8>
10002f04:	2304      	movs	r3, #4
10002f06:	9a22      	ldr	r2, [sp, #136]	; 0x88
10002f08:	401a      	ands	r2, r3
10002f0a:	9922      	ldr	r1, [sp, #136]	; 0x88
10002f0c:	420b      	tst	r3, r1
10002f0e:	d010      	beq.n	10002f32 <_ftoa+0xf6>
10002f10:	4b9b      	ldr	r3, [pc, #620]	; (10003180 <_ftoa+0x344>)
10002f12:	2a00      	cmp	r2, #0
10002f14:	d00f      	beq.n	10002f36 <_ftoa+0xfa>
10002f16:	2204      	movs	r2, #4
10002f18:	9922      	ldr	r1, [sp, #136]	; 0x88
10002f1a:	9103      	str	r1, [sp, #12]
10002f1c:	9921      	ldr	r1, [sp, #132]	; 0x84
10002f1e:	9102      	str	r1, [sp, #8]
10002f20:	9201      	str	r2, [sp, #4]
10002f22:	9300      	str	r3, [sp, #0]
10002f24:	464b      	mov	r3, r9
10002f26:	465a      	mov	r2, fp
10002f28:	9907      	ldr	r1, [sp, #28]
10002f2a:	9806      	ldr	r0, [sp, #24]
10002f2c:	f7ff fbcc 	bl	100026c8 <_out_rev>
10002f30:	e0e8      	b.n	10003104 <_ftoa+0x2c8>
10002f32:	4b94      	ldr	r3, [pc, #592]	; (10003184 <_ftoa+0x348>)
10002f34:	e7ed      	b.n	10002f12 <_ftoa+0xd6>
10002f36:	2203      	movs	r2, #3
10002f38:	e7ee      	b.n	10002f18 <_ftoa+0xdc>
10002f3a:	9b22      	ldr	r3, [sp, #136]	; 0x88
10002f3c:	9304      	str	r3, [sp, #16]
10002f3e:	9b21      	ldr	r3, [sp, #132]	; 0x84
10002f40:	9303      	str	r3, [sp, #12]
10002f42:	9702      	str	r7, [sp, #8]
10002f44:	9b1e      	ldr	r3, [sp, #120]	; 0x78
10002f46:	9c1f      	ldr	r4, [sp, #124]	; 0x7c
10002f48:	9300      	str	r3, [sp, #0]
10002f4a:	9401      	str	r4, [sp, #4]
10002f4c:	464b      	mov	r3, r9
10002f4e:	465a      	mov	r2, fp
10002f50:	9907      	ldr	r1, [sp, #28]
10002f52:	9806      	ldr	r0, [sp, #24]
10002f54:	f7ff fd68 	bl	10002a28 <_etoa>
10002f58:	e0d4      	b.n	10003104 <_ftoa+0x2c8>
10002f5a:	9a1e      	ldr	r2, [sp, #120]	; 0x78
10002f5c:	9b1f      	ldr	r3, [sp, #124]	; 0x7c
10002f5e:	2000      	movs	r0, #0
10002f60:	2100      	movs	r1, #0
10002f62:	f7fe fe58 	bl	10001c16 <__wrap___aeabi_dsub>
10002f66:	901e      	str	r0, [sp, #120]	; 0x78
10002f68:	911f      	str	r1, [sp, #124]	; 0x7c
10002f6a:	2301      	movs	r3, #1
10002f6c:	4698      	mov	r8, r3
10002f6e:	e7a5      	b.n	10002ebc <_ftoa+0x80>
10002f70:	ab0c      	add	r3, sp, #48	; 0x30
10002f72:	2230      	movs	r2, #48	; 0x30
10002f74:	551a      	strb	r2, [r3, r4]
10002f76:	3f01      	subs	r7, #1
10002f78:	3401      	adds	r4, #1
10002f7a:	2c1f      	cmp	r4, #31
10002f7c:	d801      	bhi.n	10002f82 <_ftoa+0x146>
10002f7e:	2f09      	cmp	r7, #9
10002f80:	d8f6      	bhi.n	10002f70 <_ftoa+0x134>
10002f82:	981e      	ldr	r0, [sp, #120]	; 0x78
10002f84:	991f      	ldr	r1, [sp, #124]	; 0x7c
10002f86:	f7fe fefd 	bl	10001d84 <__wrap___aeabi_d2iz>
10002f8a:	0005      	movs	r5, r0
10002f8c:	f7fe fee2 	bl	10001d54 <__wrap___aeabi_i2d>
10002f90:	0002      	movs	r2, r0
10002f92:	000b      	movs	r3, r1
10002f94:	981e      	ldr	r0, [sp, #120]	; 0x78
10002f96:	991f      	ldr	r1, [sp, #124]	; 0x7c
10002f98:	f7fe fe3d 	bl	10001c16 <__wrap___aeabi_dsub>
10002f9c:	00fa      	lsls	r2, r7, #3
10002f9e:	4b7a      	ldr	r3, [pc, #488]	; (10003188 <_ftoa+0x34c>)
10002fa0:	189b      	adds	r3, r3, r2
10002fa2:	681a      	ldr	r2, [r3, #0]
10002fa4:	685b      	ldr	r3, [r3, #4]
10002fa6:	920a      	str	r2, [sp, #40]	; 0x28
10002fa8:	930b      	str	r3, [sp, #44]	; 0x2c
10002faa:	f7fe fe64 	bl	10001c76 <__wrap___aeabi_dmul>
10002fae:	9008      	str	r0, [sp, #32]
10002fb0:	9109      	str	r1, [sp, #36]	; 0x24
10002fb2:	f7fe ff0b 	bl	10001dcc <__wrap___aeabi_d2uiz>
10002fb6:	0006      	movs	r6, r0
10002fb8:	f7fe fec8 	bl	10001d4c <__wrap___aeabi_ui2d>
10002fbc:	0002      	movs	r2, r0
10002fbe:	000b      	movs	r3, r1
10002fc0:	9808      	ldr	r0, [sp, #32]
10002fc2:	9909      	ldr	r1, [sp, #36]	; 0x24
10002fc4:	f7fe fe27 	bl	10001c16 <__wrap___aeabi_dsub>
10002fc8:	9008      	str	r0, [sp, #32]
10002fca:	9109      	str	r1, [sp, #36]	; 0x24
10002fcc:	2200      	movs	r2, #0
10002fce:	4b6f      	ldr	r3, [pc, #444]	; (1000318c <_ftoa+0x350>)
10002fd0:	f7fe feaa 	bl	10001d28 <__wrap___aeabi_dcmpgt>
10002fd4:	2800      	cmp	r0, #0
10002fd6:	d02e      	beq.n	10003036 <_ftoa+0x1fa>
10002fd8:	3601      	adds	r6, #1
10002fda:	0030      	movs	r0, r6
10002fdc:	f7fe feb6 	bl	10001d4c <__wrap___aeabi_ui2d>
10002fe0:	0002      	movs	r2, r0
10002fe2:	000b      	movs	r3, r1
10002fe4:	980a      	ldr	r0, [sp, #40]	; 0x28
10002fe6:	990b      	ldr	r1, [sp, #44]	; 0x2c
10002fe8:	f7fe fe8e 	bl	10001d08 <__wrap___aeabi_dcmple>
10002fec:	2800      	cmp	r0, #0
10002fee:	d001      	beq.n	10002ff4 <_ftoa+0x1b8>
10002ff0:	3501      	adds	r5, #1
10002ff2:	2600      	movs	r6, #0
10002ff4:	2f00      	cmp	r7, #0
10002ff6:	d12c      	bne.n	10003052 <_ftoa+0x216>
10002ff8:	0028      	movs	r0, r5
10002ffa:	f7fe feab 	bl	10001d54 <__wrap___aeabi_i2d>
10002ffe:	0002      	movs	r2, r0
10003000:	000b      	movs	r3, r1
10003002:	981e      	ldr	r0, [sp, #120]	; 0x78
10003004:	991f      	ldr	r1, [sp, #124]	; 0x7c
10003006:	f7fe fe06 	bl	10001c16 <__wrap___aeabi_dsub>
1000300a:	0006      	movs	r6, r0
1000300c:	000f      	movs	r7, r1
1000300e:	2200      	movs	r2, #0
10003010:	4b5e      	ldr	r3, [pc, #376]	; (1000318c <_ftoa+0x350>)
10003012:	f7fe fe73 	bl	10001cfc <__wrap___aeabi_dcmplt>
10003016:	2800      	cmp	r0, #0
10003018:	d146      	bne.n	100030a8 <_ftoa+0x26c>
1000301a:	2200      	movs	r2, #0
1000301c:	4b5b      	ldr	r3, [pc, #364]	; (1000318c <_ftoa+0x350>)
1000301e:	0030      	movs	r0, r6
10003020:	0039      	movs	r1, r7
10003022:	f7fe fe81 	bl	10001d28 <__wrap___aeabi_dcmpgt>
10003026:	2800      	cmp	r0, #0
10003028:	d13e      	bne.n	100030a8 <_ftoa+0x26c>
1000302a:	07eb      	lsls	r3, r5, #31
1000302c:	d53c      	bpl.n	100030a8 <_ftoa+0x26c>
1000302e:	3501      	adds	r5, #1
10003030:	e03a      	b.n	100030a8 <_ftoa+0x26c>
10003032:	2706      	movs	r7, #6
10003034:	e746      	b.n	10002ec4 <_ftoa+0x88>
10003036:	2200      	movs	r2, #0
10003038:	4b54      	ldr	r3, [pc, #336]	; (1000318c <_ftoa+0x350>)
1000303a:	9808      	ldr	r0, [sp, #32]
1000303c:	9909      	ldr	r1, [sp, #36]	; 0x24
1000303e:	f7fe fe5d 	bl	10001cfc <__wrap___aeabi_dcmplt>
10003042:	2800      	cmp	r0, #0
10003044:	d1d6      	bne.n	10002ff4 <_ftoa+0x1b8>
10003046:	2e00      	cmp	r6, #0
10003048:	d001      	beq.n	1000304e <_ftoa+0x212>
1000304a:	07f3      	lsls	r3, r6, #31
1000304c:	d5d2      	bpl.n	10002ff4 <_ftoa+0x1b8>
1000304e:	3601      	adds	r6, #1
10003050:	e7d0      	b.n	10002ff4 <_ftoa+0x1b8>
10003052:	46aa      	mov	sl, r5
10003054:	2c1f      	cmp	r4, #31
10003056:	d811      	bhi.n	1000307c <_ftoa+0x240>
10003058:	3f01      	subs	r7, #1
1000305a:	210a      	movs	r1, #10
1000305c:	0030      	movs	r0, r6
1000305e:	f7fe fb9f 	bl	100017a0 <__wrap___aeabi_uidiv>
10003062:	1c65      	adds	r5, r4, #1
10003064:	3130      	adds	r1, #48	; 0x30
10003066:	ab0c      	add	r3, sp, #48	; 0x30
10003068:	5519      	strb	r1, [r3, r4]
1000306a:	210a      	movs	r1, #10
1000306c:	0030      	movs	r0, r6
1000306e:	f7fe fb97 	bl	100017a0 <__wrap___aeabi_uidiv>
10003072:	2e09      	cmp	r6, #9
10003074:	d90e      	bls.n	10003094 <_ftoa+0x258>
10003076:	0006      	movs	r6, r0
10003078:	002c      	movs	r4, r5
1000307a:	e7eb      	b.n	10003054 <_ftoa+0x218>
1000307c:	4655      	mov	r5, sl
1000307e:	2c1f      	cmp	r4, #31
10003080:	d80c      	bhi.n	1000309c <_ftoa+0x260>
10003082:	1e7b      	subs	r3, r7, #1
10003084:	2f00      	cmp	r7, #0
10003086:	d009      	beq.n	1000309c <_ftoa+0x260>
10003088:	aa0c      	add	r2, sp, #48	; 0x30
1000308a:	2130      	movs	r1, #48	; 0x30
1000308c:	5511      	strb	r1, [r2, r4]
1000308e:	001f      	movs	r7, r3
10003090:	3401      	adds	r4, #1
10003092:	e7f4      	b.n	1000307e <_ftoa+0x242>
10003094:	002b      	movs	r3, r5
10003096:	4655      	mov	r5, sl
10003098:	001c      	movs	r4, r3
1000309a:	e7f0      	b.n	1000307e <_ftoa+0x242>
1000309c:	2c1f      	cmp	r4, #31
1000309e:	d803      	bhi.n	100030a8 <_ftoa+0x26c>
100030a0:	ab0c      	add	r3, sp, #48	; 0x30
100030a2:	222e      	movs	r2, #46	; 0x2e
100030a4:	551a      	strb	r2, [r3, r4]
100030a6:	3401      	adds	r4, #1
100030a8:	2c1f      	cmp	r4, #31
100030aa:	d810      	bhi.n	100030ce <_ftoa+0x292>
100030ac:	210a      	movs	r1, #10
100030ae:	0028      	movs	r0, r5
100030b0:	f7fe fb4e 	bl	10001750 <__wrap___aeabi_idiv>
100030b4:	1c66      	adds	r6, r4, #1
100030b6:	3130      	adds	r1, #48	; 0x30
100030b8:	ab0c      	add	r3, sp, #48	; 0x30
100030ba:	5519      	strb	r1, [r3, r4]
100030bc:	210a      	movs	r1, #10
100030be:	0028      	movs	r0, r5
100030c0:	f7fe fb46 	bl	10001750 <__wrap___aeabi_idiv>
100030c4:	1e05      	subs	r5, r0, #0
100030c6:	d001      	beq.n	100030cc <_ftoa+0x290>
100030c8:	0034      	movs	r4, r6
100030ca:	e7ed      	b.n	100030a8 <_ftoa+0x26c>
100030cc:	0034      	movs	r4, r6
100030ce:	2303      	movs	r3, #3
100030d0:	9a22      	ldr	r2, [sp, #136]	; 0x88
100030d2:	4013      	ands	r3, r2
100030d4:	2b01      	cmp	r3, #1
100030d6:	d01c      	beq.n	10003112 <_ftoa+0x2d6>
100030d8:	2c1f      	cmp	r4, #31
100030da:	d806      	bhi.n	100030ea <_ftoa+0x2ae>
100030dc:	4643      	mov	r3, r8
100030de:	2b00      	cmp	r3, #0
100030e0:	d032      	beq.n	10003148 <_ftoa+0x30c>
100030e2:	ab0c      	add	r3, sp, #48	; 0x30
100030e4:	222d      	movs	r2, #45	; 0x2d
100030e6:	551a      	strb	r2, [r3, r4]
100030e8:	3401      	adds	r4, #1
100030ea:	9b22      	ldr	r3, [sp, #136]	; 0x88
100030ec:	9303      	str	r3, [sp, #12]
100030ee:	9b21      	ldr	r3, [sp, #132]	; 0x84
100030f0:	9302      	str	r3, [sp, #8]
100030f2:	9401      	str	r4, [sp, #4]
100030f4:	ab0c      	add	r3, sp, #48	; 0x30
100030f6:	9300      	str	r3, [sp, #0]
100030f8:	464b      	mov	r3, r9
100030fa:	465a      	mov	r2, fp
100030fc:	9907      	ldr	r1, [sp, #28]
100030fe:	9806      	ldr	r0, [sp, #24]
10003100:	f7ff fae2 	bl	100026c8 <_out_rev>
10003104:	b015      	add	sp, #84	; 0x54
10003106:	bcf0      	pop	{r4, r5, r6, r7}
10003108:	46bb      	mov	fp, r7
1000310a:	46b2      	mov	sl, r6
1000310c:	46a9      	mov	r9, r5
1000310e:	46a0      	mov	r8, r4
10003110:	bdf0      	pop	{r4, r5, r6, r7, pc}
10003112:	9b21      	ldr	r3, [sp, #132]	; 0x84
10003114:	2b00      	cmp	r3, #0
10003116:	d013      	beq.n	10003140 <_ftoa+0x304>
10003118:	4643      	mov	r3, r8
1000311a:	2b00      	cmp	r3, #0
1000311c:	d102      	bne.n	10003124 <_ftoa+0x2e8>
1000311e:	330c      	adds	r3, #12
10003120:	4213      	tst	r3, r2
10003122:	d00f      	beq.n	10003144 <_ftoa+0x308>
10003124:	9b21      	ldr	r3, [sp, #132]	; 0x84
10003126:	3b01      	subs	r3, #1
10003128:	9321      	str	r3, [sp, #132]	; 0x84
1000312a:	0019      	movs	r1, r3
1000312c:	e003      	b.n	10003136 <_ftoa+0x2fa>
1000312e:	ab0c      	add	r3, sp, #48	; 0x30
10003130:	2230      	movs	r2, #48	; 0x30
10003132:	551a      	strb	r2, [r3, r4]
10003134:	3401      	adds	r4, #1
10003136:	428c      	cmp	r4, r1
10003138:	d2ce      	bcs.n	100030d8 <_ftoa+0x29c>
1000313a:	2c1f      	cmp	r4, #31
1000313c:	d9f7      	bls.n	1000312e <_ftoa+0x2f2>
1000313e:	e7cb      	b.n	100030d8 <_ftoa+0x29c>
10003140:	9921      	ldr	r1, [sp, #132]	; 0x84
10003142:	e7f8      	b.n	10003136 <_ftoa+0x2fa>
10003144:	9921      	ldr	r1, [sp, #132]	; 0x84
10003146:	e7f6      	b.n	10003136 <_ftoa+0x2fa>
10003148:	9b22      	ldr	r3, [sp, #136]	; 0x88
1000314a:	075b      	lsls	r3, r3, #29
1000314c:	d504      	bpl.n	10003158 <_ftoa+0x31c>
1000314e:	ab0c      	add	r3, sp, #48	; 0x30
10003150:	222b      	movs	r2, #43	; 0x2b
10003152:	551a      	strb	r2, [r3, r4]
10003154:	3401      	adds	r4, #1
10003156:	e7c8      	b.n	100030ea <_ftoa+0x2ae>
10003158:	9b22      	ldr	r3, [sp, #136]	; 0x88
1000315a:	071b      	lsls	r3, r3, #28
1000315c:	d5c5      	bpl.n	100030ea <_ftoa+0x2ae>
1000315e:	ab0c      	add	r3, sp, #48	; 0x30
10003160:	2220      	movs	r2, #32
10003162:	551a      	strb	r2, [r3, r4]
10003164:	3401      	adds	r4, #1
10003166:	e7c0      	b.n	100030ea <_ftoa+0x2ae>
10003168:	ffefffff 	.word	0xffefffff
1000316c:	7fefffff 	.word	0x7fefffff
10003170:	41cdcd65 	.word	0x41cdcd65
10003174:	c1cdcd65 	.word	0xc1cdcd65
10003178:	10004590 	.word	0x10004590
1000317c:	10004594 	.word	0x10004594
10003180:	10004588 	.word	0x10004588
10003184:	10004584 	.word	0x10004584
10003188:	10004780 	.word	0x10004780
1000318c:	3fe00000 	.word	0x3fe00000

10003190 <_vsnprintf>:
10003190:	b5f0      	push	{r4, r5, r6, r7, lr}
10003192:	46de      	mov	lr, fp
10003194:	4657      	mov	r7, sl
10003196:	464e      	mov	r6, r9
10003198:	4645      	mov	r5, r8
1000319a:	b5e0      	push	{r5, r6, r7, lr}
1000319c:	b093      	sub	sp, #76	; 0x4c
1000319e:	4682      	mov	sl, r0
100031a0:	468b      	mov	fp, r1
100031a2:	4690      	mov	r8, r2
100031a4:	9311      	str	r3, [sp, #68]	; 0x44
100031a6:	2900      	cmp	r1, #0
100031a8:	d100      	bne.n	100031ac <_vsnprintf+0x1c>
100031aa:	e2eb      	b.n	10003784 <_vsnprintf+0x5f4>
100031ac:	2700      	movs	r7, #0
100031ae:	4655      	mov	r5, sl
100031b0:	9b11      	ldr	r3, [sp, #68]	; 0x44
100031b2:	7818      	ldrb	r0, [r3, #0]
100031b4:	2800      	cmp	r0, #0
100031b6:	d100      	bne.n	100031ba <_vsnprintf+0x2a>
100031b8:	e2e7      	b.n	1000378a <_vsnprintf+0x5fa>
100031ba:	2825      	cmp	r0, #37	; 0x25
100031bc:	d009      	beq.n	100031d2 <_vsnprintf+0x42>
100031be:	1c7c      	adds	r4, r7, #1
100031c0:	4643      	mov	r3, r8
100031c2:	003a      	movs	r2, r7
100031c4:	4659      	mov	r1, fp
100031c6:	47a8      	blx	r5
100031c8:	9b11      	ldr	r3, [sp, #68]	; 0x44
100031ca:	3301      	adds	r3, #1
100031cc:	9311      	str	r3, [sp, #68]	; 0x44
100031ce:	0027      	movs	r7, r4
100031d0:	e7ee      	b.n	100031b0 <_vsnprintf+0x20>
100031d2:	3301      	adds	r3, #1
100031d4:	9311      	str	r3, [sp, #68]	; 0x44
100031d6:	2400      	movs	r4, #0
100031d8:	9a11      	ldr	r2, [sp, #68]	; 0x44
100031da:	7811      	ldrb	r1, [r2, #0]
100031dc:	000b      	movs	r3, r1
100031de:	3b20      	subs	r3, #32
100031e0:	b2d8      	uxtb	r0, r3
100031e2:	2810      	cmp	r0, #16
100031e4:	d803      	bhi.n	100031ee <_vsnprintf+0x5e>
100031e6:	0083      	lsls	r3, r0, #2
100031e8:	48d0      	ldr	r0, [pc, #832]	; (1000352c <_vsnprintf+0x39c>)
100031ea:	58c3      	ldr	r3, [r0, r3]
100031ec:	469f      	mov	pc, r3
100031ee:	000b      	movs	r3, r1
100031f0:	3b30      	subs	r3, #48	; 0x30
100031f2:	b2db      	uxtb	r3, r3
100031f4:	2b09      	cmp	r3, #9
100031f6:	d92c      	bls.n	10003252 <_vsnprintf+0xc2>
100031f8:	292a      	cmp	r1, #42	; 0x2a
100031fa:	d02f      	beq.n	1000325c <_vsnprintf+0xcc>
100031fc:	2300      	movs	r3, #0
100031fe:	930a      	str	r3, [sp, #40]	; 0x28
10003200:	9b11      	ldr	r3, [sp, #68]	; 0x44
10003202:	781a      	ldrb	r2, [r3, #0]
10003204:	2a2e      	cmp	r2, #46	; 0x2e
10003206:	d039      	beq.n	1000327c <_vsnprintf+0xec>
10003208:	2300      	movs	r3, #0
1000320a:	469a      	mov	sl, r3
1000320c:	9a11      	ldr	r2, [sp, #68]	; 0x44
1000320e:	7813      	ldrb	r3, [r2, #0]
10003210:	3b68      	subs	r3, #104	; 0x68
10003212:	b2d9      	uxtb	r1, r3
10003214:	2912      	cmp	r1, #18
10003216:	d876      	bhi.n	10003306 <_vsnprintf+0x176>
10003218:	008b      	lsls	r3, r1, #2
1000321a:	49c5      	ldr	r1, [pc, #788]	; (10003530 <_vsnprintf+0x3a0>)
1000321c:	58cb      	ldr	r3, [r1, r3]
1000321e:	469f      	mov	pc, r3
10003220:	2301      	movs	r3, #1
10003222:	431c      	orrs	r4, r3
10003224:	3201      	adds	r2, #1
10003226:	9211      	str	r2, [sp, #68]	; 0x44
10003228:	e7d6      	b.n	100031d8 <_vsnprintf+0x48>
1000322a:	2302      	movs	r3, #2
1000322c:	431c      	orrs	r4, r3
1000322e:	3201      	adds	r2, #1
10003230:	9211      	str	r2, [sp, #68]	; 0x44
10003232:	e7d1      	b.n	100031d8 <_vsnprintf+0x48>
10003234:	2304      	movs	r3, #4
10003236:	431c      	orrs	r4, r3
10003238:	3201      	adds	r2, #1
1000323a:	9211      	str	r2, [sp, #68]	; 0x44
1000323c:	e7cc      	b.n	100031d8 <_vsnprintf+0x48>
1000323e:	2308      	movs	r3, #8
10003240:	431c      	orrs	r4, r3
10003242:	3201      	adds	r2, #1
10003244:	9211      	str	r2, [sp, #68]	; 0x44
10003246:	e7c7      	b.n	100031d8 <_vsnprintf+0x48>
10003248:	2310      	movs	r3, #16
1000324a:	431c      	orrs	r4, r3
1000324c:	3201      	adds	r2, #1
1000324e:	9211      	str	r2, [sp, #68]	; 0x44
10003250:	e7c2      	b.n	100031d8 <_vsnprintf+0x48>
10003252:	a811      	add	r0, sp, #68	; 0x44
10003254:	f7ff fa26 	bl	100026a4 <_atoi>
10003258:	900a      	str	r0, [sp, #40]	; 0x28
1000325a:	e7d1      	b.n	10003200 <_vsnprintf+0x70>
1000325c:	9b1c      	ldr	r3, [sp, #112]	; 0x70
1000325e:	1d1a      	adds	r2, r3, #4
10003260:	921c      	str	r2, [sp, #112]	; 0x70
10003262:	6818      	ldr	r0, [r3, #0]
10003264:	2800      	cmp	r0, #0
10003266:	db04      	blt.n	10003272 <_vsnprintf+0xe2>
10003268:	900a      	str	r0, [sp, #40]	; 0x28
1000326a:	9b11      	ldr	r3, [sp, #68]	; 0x44
1000326c:	3301      	adds	r3, #1
1000326e:	9311      	str	r3, [sp, #68]	; 0x44
10003270:	e7c6      	b.n	10003200 <_vsnprintf+0x70>
10003272:	2302      	movs	r3, #2
10003274:	431c      	orrs	r4, r3
10003276:	4243      	negs	r3, r0
10003278:	930a      	str	r3, [sp, #40]	; 0x28
1000327a:	e7f6      	b.n	1000326a <_vsnprintf+0xda>
1000327c:	2280      	movs	r2, #128	; 0x80
1000327e:	00d2      	lsls	r2, r2, #3
10003280:	4314      	orrs	r4, r2
10003282:	1c5a      	adds	r2, r3, #1
10003284:	9211      	str	r2, [sp, #68]	; 0x44
10003286:	785a      	ldrb	r2, [r3, #1]
10003288:	0013      	movs	r3, r2
1000328a:	3b30      	subs	r3, #48	; 0x30
1000328c:	b2db      	uxtb	r3, r3
1000328e:	2b09      	cmp	r3, #9
10003290:	d904      	bls.n	1000329c <_vsnprintf+0x10c>
10003292:	2a2a      	cmp	r2, #42	; 0x2a
10003294:	d007      	beq.n	100032a6 <_vsnprintf+0x116>
10003296:	2300      	movs	r3, #0
10003298:	469a      	mov	sl, r3
1000329a:	e7b7      	b.n	1000320c <_vsnprintf+0x7c>
1000329c:	a811      	add	r0, sp, #68	; 0x44
1000329e:	f7ff fa01 	bl	100026a4 <_atoi>
100032a2:	4682      	mov	sl, r0
100032a4:	e7b2      	b.n	1000320c <_vsnprintf+0x7c>
100032a6:	9b1c      	ldr	r3, [sp, #112]	; 0x70
100032a8:	1d1a      	adds	r2, r3, #4
100032aa:	921c      	str	r2, [sp, #112]	; 0x70
100032ac:	6818      	ldr	r0, [r3, #0]
100032ae:	2800      	cmp	r0, #0
100032b0:	db04      	blt.n	100032bc <_vsnprintf+0x12c>
100032b2:	4682      	mov	sl, r0
100032b4:	9b11      	ldr	r3, [sp, #68]	; 0x44
100032b6:	3301      	adds	r3, #1
100032b8:	9311      	str	r3, [sp, #68]	; 0x44
100032ba:	e7a7      	b.n	1000320c <_vsnprintf+0x7c>
100032bc:	2000      	movs	r0, #0
100032be:	e7f8      	b.n	100032b2 <_vsnprintf+0x122>
100032c0:	2380      	movs	r3, #128	; 0x80
100032c2:	005b      	lsls	r3, r3, #1
100032c4:	4323      	orrs	r3, r4
100032c6:	1c51      	adds	r1, r2, #1
100032c8:	9111      	str	r1, [sp, #68]	; 0x44
100032ca:	7852      	ldrb	r2, [r2, #1]
100032cc:	2a6c      	cmp	r2, #108	; 0x6c
100032ce:	d001      	beq.n	100032d4 <_vsnprintf+0x144>
100032d0:	001c      	movs	r4, r3
100032d2:	e018      	b.n	10003306 <_vsnprintf+0x176>
100032d4:	23c0      	movs	r3, #192	; 0xc0
100032d6:	009b      	lsls	r3, r3, #2
100032d8:	431c      	orrs	r4, r3
100032da:	3101      	adds	r1, #1
100032dc:	9111      	str	r1, [sp, #68]	; 0x44
100032de:	e012      	b.n	10003306 <_vsnprintf+0x176>
100032e0:	2380      	movs	r3, #128	; 0x80
100032e2:	4323      	orrs	r3, r4
100032e4:	1c51      	adds	r1, r2, #1
100032e6:	9111      	str	r1, [sp, #68]	; 0x44
100032e8:	7852      	ldrb	r2, [r2, #1]
100032ea:	2a68      	cmp	r2, #104	; 0x68
100032ec:	d001      	beq.n	100032f2 <_vsnprintf+0x162>
100032ee:	001c      	movs	r4, r3
100032f0:	e009      	b.n	10003306 <_vsnprintf+0x176>
100032f2:	23c0      	movs	r3, #192	; 0xc0
100032f4:	431c      	orrs	r4, r3
100032f6:	3101      	adds	r1, #1
100032f8:	9111      	str	r1, [sp, #68]	; 0x44
100032fa:	e004      	b.n	10003306 <_vsnprintf+0x176>
100032fc:	2380      	movs	r3, #128	; 0x80
100032fe:	005b      	lsls	r3, r3, #1
10003300:	431c      	orrs	r4, r3
10003302:	3201      	adds	r2, #1
10003304:	9211      	str	r2, [sp, #68]	; 0x44
10003306:	9b11      	ldr	r3, [sp, #68]	; 0x44
10003308:	7818      	ldrb	r0, [r3, #0]
1000330a:	0003      	movs	r3, r0
1000330c:	3b25      	subs	r3, #37	; 0x25
1000330e:	b2da      	uxtb	r2, r3
10003310:	2a53      	cmp	r2, #83	; 0x53
10003312:	d900      	bls.n	10003316 <_vsnprintf+0x186>
10003314:	e22c      	b.n	10003770 <_vsnprintf+0x5e0>
10003316:	0093      	lsls	r3, r2, #2
10003318:	4a86      	ldr	r2, [pc, #536]	; (10003534 <_vsnprintf+0x3a4>)
1000331a:	58d3      	ldr	r3, [r2, r3]
1000331c:	469f      	mov	pc, r3
1000331e:	2380      	movs	r3, #128	; 0x80
10003320:	009b      	lsls	r3, r3, #2
10003322:	431c      	orrs	r4, r3
10003324:	3201      	adds	r2, #1
10003326:	9211      	str	r2, [sp, #68]	; 0x44
10003328:	e7ed      	b.n	10003306 <_vsnprintf+0x176>
1000332a:	2380      	movs	r3, #128	; 0x80
1000332c:	005b      	lsls	r3, r3, #1
1000332e:	431c      	orrs	r4, r3
10003330:	3201      	adds	r2, #1
10003332:	9211      	str	r2, [sp, #68]	; 0x44
10003334:	e7e7      	b.n	10003306 <_vsnprintf+0x176>
10003336:	2878      	cmp	r0, #120	; 0x78
10003338:	d009      	beq.n	1000334e <_vsnprintf+0x1be>
1000333a:	2858      	cmp	r0, #88	; 0x58
1000333c:	d038      	beq.n	100033b0 <_vsnprintf+0x220>
1000333e:	286f      	cmp	r0, #111	; 0x6f
10003340:	d038      	beq.n	100033b4 <_vsnprintf+0x224>
10003342:	2862      	cmp	r0, #98	; 0x62
10003344:	d038      	beq.n	100033b8 <_vsnprintf+0x228>
10003346:	2310      	movs	r3, #16
10003348:	439c      	bics	r4, r3
1000334a:	260a      	movs	r6, #10
1000334c:	e000      	b.n	10003350 <_vsnprintf+0x1c0>
1000334e:	2610      	movs	r6, #16
10003350:	2858      	cmp	r0, #88	; 0x58
10003352:	d033      	beq.n	100033bc <_vsnprintf+0x22c>
10003354:	2869      	cmp	r0, #105	; 0x69
10003356:	d003      	beq.n	10003360 <_vsnprintf+0x1d0>
10003358:	2864      	cmp	r0, #100	; 0x64
1000335a:	d001      	beq.n	10003360 <_vsnprintf+0x1d0>
1000335c:	220c      	movs	r2, #12
1000335e:	4394      	bics	r4, r2
10003360:	0563      	lsls	r3, r4, #21
10003362:	d501      	bpl.n	10003368 <_vsnprintf+0x1d8>
10003364:	2201      	movs	r2, #1
10003366:	4394      	bics	r4, r2
10003368:	2869      	cmp	r0, #105	; 0x69
1000336a:	d02a      	beq.n	100033c2 <_vsnprintf+0x232>
1000336c:	2864      	cmp	r0, #100	; 0x64
1000336e:	d028      	beq.n	100033c2 <_vsnprintf+0x232>
10003370:	05a3      	lsls	r3, r4, #22
10003372:	d500      	bpl.n	10003376 <_vsnprintf+0x1e6>
10003374:	e09f      	b.n	100034b6 <_vsnprintf+0x326>
10003376:	05e3      	lsls	r3, r4, #23
10003378:	d500      	bpl.n	1000337c <_vsnprintf+0x1ec>
1000337a:	e0b8      	b.n	100034ee <_vsnprintf+0x35e>
1000337c:	0663      	lsls	r3, r4, #25
1000337e:	d400      	bmi.n	10003382 <_vsnprintf+0x1f2>
10003380:	e0ca      	b.n	10003518 <_vsnprintf+0x388>
10003382:	9a1c      	ldr	r2, [sp, #112]	; 0x70
10003384:	1d11      	adds	r1, r2, #4
10003386:	911c      	str	r1, [sp, #112]	; 0x70
10003388:	6811      	ldr	r1, [r2, #0]
1000338a:	22ff      	movs	r2, #255	; 0xff
1000338c:	400a      	ands	r2, r1
1000338e:	9405      	str	r4, [sp, #20]
10003390:	9b0a      	ldr	r3, [sp, #40]	; 0x28
10003392:	9304      	str	r3, [sp, #16]
10003394:	4653      	mov	r3, sl
10003396:	9303      	str	r3, [sp, #12]
10003398:	9602      	str	r6, [sp, #8]
1000339a:	2300      	movs	r3, #0
1000339c:	9301      	str	r3, [sp, #4]
1000339e:	9200      	str	r2, [sp, #0]
100033a0:	4643      	mov	r3, r8
100033a2:	003a      	movs	r2, r7
100033a4:	4659      	mov	r1, fp
100033a6:	0028      	movs	r0, r5
100033a8:	f7ff fa6e 	bl	10002888 <_ntoa_long>
100033ac:	0007      	movs	r7, r0
100033ae:	e027      	b.n	10003400 <_vsnprintf+0x270>
100033b0:	2610      	movs	r6, #16
100033b2:	e7cd      	b.n	10003350 <_vsnprintf+0x1c0>
100033b4:	2608      	movs	r6, #8
100033b6:	e7cb      	b.n	10003350 <_vsnprintf+0x1c0>
100033b8:	2602      	movs	r6, #2
100033ba:	e7c9      	b.n	10003350 <_vsnprintf+0x1c0>
100033bc:	2220      	movs	r2, #32
100033be:	4314      	orrs	r4, r2
100033c0:	e7c8      	b.n	10003354 <_vsnprintf+0x1c4>
100033c2:	05a3      	lsls	r3, r4, #22
100033c4:	d420      	bmi.n	10003408 <_vsnprintf+0x278>
100033c6:	05e3      	lsls	r3, r4, #23
100033c8:	d450      	bmi.n	1000346c <_vsnprintf+0x2dc>
100033ca:	0663      	lsls	r3, r4, #25
100033cc:	d566      	bpl.n	1000349c <_vsnprintf+0x30c>
100033ce:	9a1c      	ldr	r2, [sp, #112]	; 0x70
100033d0:	1d11      	adds	r1, r2, #4
100033d2:	911c      	str	r1, [sp, #112]	; 0x70
100033d4:	6811      	ldr	r1, [r2, #0]
100033d6:	22ff      	movs	r2, #255	; 0xff
100033d8:	400a      	ands	r2, r1
100033da:	17d3      	asrs	r3, r2, #31
100033dc:	18d1      	adds	r1, r2, r3
100033de:	4059      	eors	r1, r3
100033e0:	9405      	str	r4, [sp, #20]
100033e2:	9b0a      	ldr	r3, [sp, #40]	; 0x28
100033e4:	9304      	str	r3, [sp, #16]
100033e6:	4653      	mov	r3, sl
100033e8:	9303      	str	r3, [sp, #12]
100033ea:	9602      	str	r6, [sp, #8]
100033ec:	0fd2      	lsrs	r2, r2, #31
100033ee:	9201      	str	r2, [sp, #4]
100033f0:	9100      	str	r1, [sp, #0]
100033f2:	4643      	mov	r3, r8
100033f4:	003a      	movs	r2, r7
100033f6:	4659      	mov	r1, fp
100033f8:	0028      	movs	r0, r5
100033fa:	f7ff fa45 	bl	10002888 <_ntoa_long>
100033fe:	0007      	movs	r7, r0
10003400:	9b11      	ldr	r3, [sp, #68]	; 0x44
10003402:	3301      	adds	r3, #1
10003404:	9311      	str	r3, [sp, #68]	; 0x44
10003406:	e6d3      	b.n	100031b0 <_vsnprintf+0x20>
10003408:	9b1c      	ldr	r3, [sp, #112]	; 0x70
1000340a:	1dda      	adds	r2, r3, #7
1000340c:	2107      	movs	r1, #7
1000340e:	438a      	bics	r2, r1
10003410:	0011      	movs	r1, r2
10003412:	3108      	adds	r1, #8
10003414:	911c      	str	r1, [sp, #112]	; 0x70
10003416:	6811      	ldr	r1, [r2, #0]
10003418:	6853      	ldr	r3, [r2, #4]
1000341a:	469c      	mov	ip, r3
1000341c:	17db      	asrs	r3, r3, #31
1000341e:	930c      	str	r3, [sp, #48]	; 0x30
10003420:	930d      	str	r3, [sp, #52]	; 0x34
10003422:	9a0c      	ldr	r2, [sp, #48]	; 0x30
10003424:	9b0d      	ldr	r3, [sp, #52]	; 0x34
10003426:	0010      	movs	r0, r2
10003428:	4048      	eors	r0, r1
1000342a:	900e      	str	r0, [sp, #56]	; 0x38
1000342c:	4662      	mov	r2, ip
1000342e:	4053      	eors	r3, r2
10003430:	930f      	str	r3, [sp, #60]	; 0x3c
10003432:	980e      	ldr	r0, [sp, #56]	; 0x38
10003434:	990f      	ldr	r1, [sp, #60]	; 0x3c
10003436:	9a0c      	ldr	r2, [sp, #48]	; 0x30
10003438:	9b0d      	ldr	r3, [sp, #52]	; 0x34
1000343a:	1a80      	subs	r0, r0, r2
1000343c:	4199      	sbcs	r1, r3
1000343e:	900e      	str	r0, [sp, #56]	; 0x38
10003440:	910f      	str	r1, [sp, #60]	; 0x3c
10003442:	9408      	str	r4, [sp, #32]
10003444:	9b0a      	ldr	r3, [sp, #40]	; 0x28
10003446:	9307      	str	r3, [sp, #28]
10003448:	4653      	mov	r3, sl
1000344a:	9306      	str	r3, [sp, #24]
1000344c:	9604      	str	r6, [sp, #16]
1000344e:	2300      	movs	r3, #0
10003450:	9305      	str	r3, [sp, #20]
10003452:	4663      	mov	r3, ip
10003454:	0fda      	lsrs	r2, r3, #31
10003456:	9202      	str	r2, [sp, #8]
10003458:	9000      	str	r0, [sp, #0]
1000345a:	9101      	str	r1, [sp, #4]
1000345c:	4643      	mov	r3, r8
1000345e:	003a      	movs	r2, r7
10003460:	4659      	mov	r1, fp
10003462:	0028      	movs	r0, r5
10003464:	f7ff fa6e 	bl	10002944 <_ntoa_long_long>
10003468:	0007      	movs	r7, r0
1000346a:	e7c9      	b.n	10003400 <_vsnprintf+0x270>
1000346c:	9a1c      	ldr	r2, [sp, #112]	; 0x70
1000346e:	1d11      	adds	r1, r2, #4
10003470:	911c      	str	r1, [sp, #112]	; 0x70
10003472:	6812      	ldr	r2, [r2, #0]
10003474:	17d3      	asrs	r3, r2, #31
10003476:	18d1      	adds	r1, r2, r3
10003478:	4059      	eors	r1, r3
1000347a:	9405      	str	r4, [sp, #20]
1000347c:	9b0a      	ldr	r3, [sp, #40]	; 0x28
1000347e:	9304      	str	r3, [sp, #16]
10003480:	4653      	mov	r3, sl
10003482:	9303      	str	r3, [sp, #12]
10003484:	9602      	str	r6, [sp, #8]
10003486:	0fd2      	lsrs	r2, r2, #31
10003488:	9201      	str	r2, [sp, #4]
1000348a:	9100      	str	r1, [sp, #0]
1000348c:	4643      	mov	r3, r8
1000348e:	003a      	movs	r2, r7
10003490:	4659      	mov	r1, fp
10003492:	0028      	movs	r0, r5
10003494:	f7ff f9f8 	bl	10002888 <_ntoa_long>
10003498:	0007      	movs	r7, r0
1000349a:	e7b1      	b.n	10003400 <_vsnprintf+0x270>
1000349c:	0623      	lsls	r3, r4, #24
1000349e:	d505      	bpl.n	100034ac <_vsnprintf+0x31c>
100034a0:	9a1c      	ldr	r2, [sp, #112]	; 0x70
100034a2:	1d11      	adds	r1, r2, #4
100034a4:	911c      	str	r1, [sp, #112]	; 0x70
100034a6:	2300      	movs	r3, #0
100034a8:	5ed2      	ldrsh	r2, [r2, r3]
100034aa:	e796      	b.n	100033da <_vsnprintf+0x24a>
100034ac:	9a1c      	ldr	r2, [sp, #112]	; 0x70
100034ae:	1d11      	adds	r1, r2, #4
100034b0:	911c      	str	r1, [sp, #112]	; 0x70
100034b2:	6812      	ldr	r2, [r2, #0]
100034b4:	e791      	b.n	100033da <_vsnprintf+0x24a>
100034b6:	9b1c      	ldr	r3, [sp, #112]	; 0x70
100034b8:	1dda      	adds	r2, r3, #7
100034ba:	2107      	movs	r1, #7
100034bc:	438a      	bics	r2, r1
100034be:	0011      	movs	r1, r2
100034c0:	3108      	adds	r1, #8
100034c2:	911c      	str	r1, [sp, #112]	; 0x70
100034c4:	9408      	str	r4, [sp, #32]
100034c6:	9b0a      	ldr	r3, [sp, #40]	; 0x28
100034c8:	9307      	str	r3, [sp, #28]
100034ca:	4653      	mov	r3, sl
100034cc:	9306      	str	r3, [sp, #24]
100034ce:	9604      	str	r6, [sp, #16]
100034d0:	2300      	movs	r3, #0
100034d2:	9305      	str	r3, [sp, #20]
100034d4:	9302      	str	r3, [sp, #8]
100034d6:	6813      	ldr	r3, [r2, #0]
100034d8:	6854      	ldr	r4, [r2, #4]
100034da:	9300      	str	r3, [sp, #0]
100034dc:	9401      	str	r4, [sp, #4]
100034de:	4643      	mov	r3, r8
100034e0:	003a      	movs	r2, r7
100034e2:	4659      	mov	r1, fp
100034e4:	0028      	movs	r0, r5
100034e6:	f7ff fa2d 	bl	10002944 <_ntoa_long_long>
100034ea:	0007      	movs	r7, r0
100034ec:	e788      	b.n	10003400 <_vsnprintf+0x270>
100034ee:	9a1c      	ldr	r2, [sp, #112]	; 0x70
100034f0:	1d11      	adds	r1, r2, #4
100034f2:	911c      	str	r1, [sp, #112]	; 0x70
100034f4:	9405      	str	r4, [sp, #20]
100034f6:	9b0a      	ldr	r3, [sp, #40]	; 0x28
100034f8:	9304      	str	r3, [sp, #16]
100034fa:	4653      	mov	r3, sl
100034fc:	9303      	str	r3, [sp, #12]
100034fe:	9602      	str	r6, [sp, #8]
10003500:	2300      	movs	r3, #0
10003502:	9301      	str	r3, [sp, #4]
10003504:	6813      	ldr	r3, [r2, #0]
10003506:	9300      	str	r3, [sp, #0]
10003508:	4643      	mov	r3, r8
1000350a:	003a      	movs	r2, r7
1000350c:	4659      	mov	r1, fp
1000350e:	0028      	movs	r0, r5
10003510:	f7ff f9ba 	bl	10002888 <_ntoa_long>
10003514:	0007      	movs	r7, r0
10003516:	e773      	b.n	10003400 <_vsnprintf+0x270>
10003518:	0623      	lsls	r3, r4, #24
1000351a:	d50d      	bpl.n	10003538 <_vsnprintf+0x3a8>
1000351c:	9a1c      	ldr	r2, [sp, #112]	; 0x70
1000351e:	1d11      	adds	r1, r2, #4
10003520:	911c      	str	r1, [sp, #112]	; 0x70
10003522:	6812      	ldr	r2, [r2, #0]
10003524:	0412      	lsls	r2, r2, #16
10003526:	0c12      	lsrs	r2, r2, #16
10003528:	e731      	b.n	1000338e <_vsnprintf+0x1fe>
1000352a:	46c0      	nop			; (mov r8, r8)
1000352c:	1000459c 	.word	0x1000459c
10003530:	100045e0 	.word	0x100045e0
10003534:	1000462c 	.word	0x1000462c
10003538:	9a1c      	ldr	r2, [sp, #112]	; 0x70
1000353a:	1d11      	adds	r1, r2, #4
1000353c:	911c      	str	r1, [sp, #112]	; 0x70
1000353e:	6812      	ldr	r2, [r2, #0]
10003540:	e725      	b.n	1000338e <_vsnprintf+0x1fe>
10003542:	2846      	cmp	r0, #70	; 0x46
10003544:	d01a      	beq.n	1000357c <_vsnprintf+0x3ec>
10003546:	9b1c      	ldr	r3, [sp, #112]	; 0x70
10003548:	3307      	adds	r3, #7
1000354a:	2207      	movs	r2, #7
1000354c:	4393      	bics	r3, r2
1000354e:	001a      	movs	r2, r3
10003550:	3208      	adds	r2, #8
10003552:	921c      	str	r2, [sp, #112]	; 0x70
10003554:	9404      	str	r4, [sp, #16]
10003556:	9a0a      	ldr	r2, [sp, #40]	; 0x28
10003558:	9203      	str	r2, [sp, #12]
1000355a:	4652      	mov	r2, sl
1000355c:	9202      	str	r2, [sp, #8]
1000355e:	685c      	ldr	r4, [r3, #4]
10003560:	681b      	ldr	r3, [r3, #0]
10003562:	9300      	str	r3, [sp, #0]
10003564:	9401      	str	r4, [sp, #4]
10003566:	4643      	mov	r3, r8
10003568:	003a      	movs	r2, r7
1000356a:	4659      	mov	r1, fp
1000356c:	0028      	movs	r0, r5
1000356e:	f7ff fc65 	bl	10002e3c <_ftoa>
10003572:	0007      	movs	r7, r0
10003574:	9b11      	ldr	r3, [sp, #68]	; 0x44
10003576:	3301      	adds	r3, #1
10003578:	9311      	str	r3, [sp, #68]	; 0x44
1000357a:	e619      	b.n	100031b0 <_vsnprintf+0x20>
1000357c:	2320      	movs	r3, #32
1000357e:	431c      	orrs	r4, r3
10003580:	e7e1      	b.n	10003546 <_vsnprintf+0x3b6>
10003582:	2867      	cmp	r0, #103	; 0x67
10003584:	d001      	beq.n	1000358a <_vsnprintf+0x3fa>
10003586:	2847      	cmp	r0, #71	; 0x47
10003588:	d102      	bne.n	10003590 <_vsnprintf+0x400>
1000358a:	2380      	movs	r3, #128	; 0x80
1000358c:	011b      	lsls	r3, r3, #4
1000358e:	431c      	orrs	r4, r3
10003590:	2845      	cmp	r0, #69	; 0x45
10003592:	d001      	beq.n	10003598 <_vsnprintf+0x408>
10003594:	2847      	cmp	r0, #71	; 0x47
10003596:	d101      	bne.n	1000359c <_vsnprintf+0x40c>
10003598:	2320      	movs	r3, #32
1000359a:	431c      	orrs	r4, r3
1000359c:	9b1c      	ldr	r3, [sp, #112]	; 0x70
1000359e:	3307      	adds	r3, #7
100035a0:	2207      	movs	r2, #7
100035a2:	4393      	bics	r3, r2
100035a4:	001a      	movs	r2, r3
100035a6:	3208      	adds	r2, #8
100035a8:	921c      	str	r2, [sp, #112]	; 0x70
100035aa:	9404      	str	r4, [sp, #16]
100035ac:	9a0a      	ldr	r2, [sp, #40]	; 0x28
100035ae:	9203      	str	r2, [sp, #12]
100035b0:	4652      	mov	r2, sl
100035b2:	9202      	str	r2, [sp, #8]
100035b4:	685c      	ldr	r4, [r3, #4]
100035b6:	681b      	ldr	r3, [r3, #0]
100035b8:	9300      	str	r3, [sp, #0]
100035ba:	9401      	str	r4, [sp, #4]
100035bc:	4643      	mov	r3, r8
100035be:	003a      	movs	r2, r7
100035c0:	4659      	mov	r1, fp
100035c2:	0028      	movs	r0, r5
100035c4:	f7ff fa30 	bl	10002a28 <_etoa>
100035c8:	0007      	movs	r7, r0
100035ca:	9b11      	ldr	r3, [sp, #68]	; 0x44
100035cc:	3301      	adds	r3, #1
100035ce:	9311      	str	r3, [sp, #68]	; 0x44
100035d0:	e5ee      	b.n	100031b0 <_vsnprintf+0x20>
100035d2:	2302      	movs	r3, #2
100035d4:	001a      	movs	r2, r3
100035d6:	4022      	ands	r2, r4
100035d8:	4692      	mov	sl, r2
100035da:	4223      	tst	r3, r4
100035dc:	d01f      	beq.n	1000361e <_vsnprintf+0x48e>
100035de:	2401      	movs	r4, #1
100035e0:	9b1c      	ldr	r3, [sp, #112]	; 0x70
100035e2:	1d1a      	adds	r2, r3, #4
100035e4:	921c      	str	r2, [sp, #112]	; 0x70
100035e6:	1c7a      	adds	r2, r7, #1
100035e8:	4691      	mov	r9, r2
100035ea:	7818      	ldrb	r0, [r3, #0]
100035ec:	4643      	mov	r3, r8
100035ee:	003a      	movs	r2, r7
100035f0:	4659      	mov	r1, fp
100035f2:	47a8      	blx	r5
100035f4:	4653      	mov	r3, sl
100035f6:	2b00      	cmp	r3, #0
100035f8:	d116      	bne.n	10003628 <_vsnprintf+0x498>
100035fa:	9b11      	ldr	r3, [sp, #68]	; 0x44
100035fc:	3301      	adds	r3, #1
100035fe:	9311      	str	r3, [sp, #68]	; 0x44
10003600:	464f      	mov	r7, r9
10003602:	e5d5      	b.n	100031b0 <_vsnprintf+0x20>
10003604:	1c56      	adds	r6, r2, #1
10003606:	4643      	mov	r3, r8
10003608:	4659      	mov	r1, fp
1000360a:	2020      	movs	r0, #32
1000360c:	47b8      	blx	r7
1000360e:	0023      	movs	r3, r4
10003610:	0032      	movs	r2, r6
10003612:	1c5c      	adds	r4, r3, #1
10003614:	429d      	cmp	r5, r3
10003616:	d8f5      	bhi.n	10003604 <_vsnprintf+0x474>
10003618:	003d      	movs	r5, r7
1000361a:	0017      	movs	r7, r2
1000361c:	e7e0      	b.n	100035e0 <_vsnprintf+0x450>
1000361e:	2301      	movs	r3, #1
10003620:	003a      	movs	r2, r7
10003622:	002f      	movs	r7, r5
10003624:	9d0a      	ldr	r5, [sp, #40]	; 0x28
10003626:	e7f4      	b.n	10003612 <_vsnprintf+0x482>
10003628:	464a      	mov	r2, r9
1000362a:	46a9      	mov	r9, r5
1000362c:	9d0a      	ldr	r5, [sp, #40]	; 0x28
1000362e:	e006      	b.n	1000363e <_vsnprintf+0x4ae>
10003630:	1c57      	adds	r7, r2, #1
10003632:	4643      	mov	r3, r8
10003634:	4659      	mov	r1, fp
10003636:	2020      	movs	r0, #32
10003638:	47c8      	blx	r9
1000363a:	0034      	movs	r4, r6
1000363c:	003a      	movs	r2, r7
1000363e:	1c66      	adds	r6, r4, #1
10003640:	42a5      	cmp	r5, r4
10003642:	d8f5      	bhi.n	10003630 <_vsnprintf+0x4a0>
10003644:	464d      	mov	r5, r9
10003646:	4691      	mov	r9, r2
10003648:	e7d7      	b.n	100035fa <_vsnprintf+0x46a>
1000364a:	9b1c      	ldr	r3, [sp, #112]	; 0x70
1000364c:	1d1a      	adds	r2, r3, #4
1000364e:	921c      	str	r2, [sp, #112]	; 0x70
10003650:	681b      	ldr	r3, [r3, #0]
10003652:	4699      	mov	r9, r3
10003654:	4653      	mov	r3, sl
10003656:	2b00      	cmp	r3, #0
10003658:	d100      	bne.n	1000365c <_vsnprintf+0x4cc>
1000365a:	3b01      	subs	r3, #1
1000365c:	464e      	mov	r6, r9
1000365e:	e001      	b.n	10003664 <_vsnprintf+0x4d4>
10003660:	3601      	adds	r6, #1
10003662:	0013      	movs	r3, r2
10003664:	7832      	ldrb	r2, [r6, #0]
10003666:	2a00      	cmp	r2, #0
10003668:	d002      	beq.n	10003670 <_vsnprintf+0x4e0>
1000366a:	1e5a      	subs	r2, r3, #1
1000366c:	2b00      	cmp	r3, #0
1000366e:	d1f7      	bne.n	10003660 <_vsnprintf+0x4d0>
10003670:	464b      	mov	r3, r9
10003672:	1af2      	subs	r2, r6, r3
10003674:	9210      	str	r2, [sp, #64]	; 0x40
10003676:	2380      	movs	r3, #128	; 0x80
10003678:	00db      	lsls	r3, r3, #3
1000367a:	0026      	movs	r6, r4
1000367c:	401e      	ands	r6, r3
1000367e:	421c      	tst	r4, r3
10003680:	d003      	beq.n	1000368a <_vsnprintf+0x4fa>
10003682:	4552      	cmp	r2, sl
10003684:	d901      	bls.n	1000368a <_vsnprintf+0x4fa>
10003686:	4653      	mov	r3, sl
10003688:	9310      	str	r3, [sp, #64]	; 0x40
1000368a:	2302      	movs	r3, #2
1000368c:	001a      	movs	r2, r3
1000368e:	4022      	ands	r2, r4
10003690:	920b      	str	r2, [sp, #44]	; 0x2c
10003692:	4223      	tst	r3, r4
10003694:	d005      	beq.n	100036a2 <_vsnprintf+0x512>
10003696:	003a      	movs	r2, r7
10003698:	0037      	movs	r7, r6
1000369a:	464c      	mov	r4, r9
1000369c:	46a9      	mov	r9, r5
1000369e:	4655      	mov	r5, sl
100036a0:	e020      	b.n	100036e4 <_vsnprintf+0x554>
100036a2:	003a      	movs	r2, r7
100036a4:	9b10      	ldr	r3, [sp, #64]	; 0x40
100036a6:	465f      	mov	r7, fp
100036a8:	46b3      	mov	fp, r6
100036aa:	002e      	movs	r6, r5
100036ac:	e006      	b.n	100036bc <_vsnprintf+0x52c>
100036ae:	1c55      	adds	r5, r2, #1
100036b0:	4643      	mov	r3, r8
100036b2:	0039      	movs	r1, r7
100036b4:	2020      	movs	r0, #32
100036b6:	47b0      	blx	r6
100036b8:	0023      	movs	r3, r4
100036ba:	002a      	movs	r2, r5
100036bc:	1c5c      	adds	r4, r3, #1
100036be:	990a      	ldr	r1, [sp, #40]	; 0x28
100036c0:	4299      	cmp	r1, r3
100036c2:	d8f4      	bhi.n	100036ae <_vsnprintf+0x51e>
100036c4:	0035      	movs	r5, r6
100036c6:	465e      	mov	r6, fp
100036c8:	46bb      	mov	fp, r7
100036ca:	9410      	str	r4, [sp, #64]	; 0x40
100036cc:	0037      	movs	r7, r6
100036ce:	464c      	mov	r4, r9
100036d0:	46a9      	mov	r9, r5
100036d2:	4655      	mov	r5, sl
100036d4:	e006      	b.n	100036e4 <_vsnprintf+0x554>
100036d6:	001d      	movs	r5, r3
100036d8:	3401      	adds	r4, #1
100036da:	1c56      	adds	r6, r2, #1
100036dc:	4643      	mov	r3, r8
100036de:	4659      	mov	r1, fp
100036e0:	47c8      	blx	r9
100036e2:	0032      	movs	r2, r6
100036e4:	7820      	ldrb	r0, [r4, #0]
100036e6:	2800      	cmp	r0, #0
100036e8:	d004      	beq.n	100036f4 <_vsnprintf+0x564>
100036ea:	2f00      	cmp	r7, #0
100036ec:	d0f4      	beq.n	100036d8 <_vsnprintf+0x548>
100036ee:	1e6b      	subs	r3, r5, #1
100036f0:	2d00      	cmp	r5, #0
100036f2:	d1f0      	bne.n	100036d6 <_vsnprintf+0x546>
100036f4:	0017      	movs	r7, r2
100036f6:	464d      	mov	r5, r9
100036f8:	9b0b      	ldr	r3, [sp, #44]	; 0x2c
100036fa:	2b00      	cmp	r3, #0
100036fc:	d103      	bne.n	10003706 <_vsnprintf+0x576>
100036fe:	9b11      	ldr	r3, [sp, #68]	; 0x44
10003700:	3301      	adds	r3, #1
10003702:	9311      	str	r3, [sp, #68]	; 0x44
10003704:	e554      	b.n	100031b0 <_vsnprintf+0x20>
10003706:	9f0a      	ldr	r7, [sp, #40]	; 0x28
10003708:	9b10      	ldr	r3, [sp, #64]	; 0x40
1000370a:	e006      	b.n	1000371a <_vsnprintf+0x58a>
1000370c:	1c56      	adds	r6, r2, #1
1000370e:	4643      	mov	r3, r8
10003710:	4659      	mov	r1, fp
10003712:	2020      	movs	r0, #32
10003714:	47a8      	blx	r5
10003716:	0023      	movs	r3, r4
10003718:	0032      	movs	r2, r6
1000371a:	1c5c      	adds	r4, r3, #1
1000371c:	429f      	cmp	r7, r3
1000371e:	d8f5      	bhi.n	1000370c <_vsnprintf+0x57c>
10003720:	0017      	movs	r7, r2
10003722:	e7ec      	b.n	100036fe <_vsnprintf+0x56e>
10003724:	2321      	movs	r3, #33	; 0x21
10003726:	431c      	orrs	r4, r3
10003728:	9b1c      	ldr	r3, [sp, #112]	; 0x70
1000372a:	1d1a      	adds	r2, r3, #4
1000372c:	921c      	str	r2, [sp, #112]	; 0x70
1000372e:	681b      	ldr	r3, [r3, #0]
10003730:	9300      	str	r3, [sp, #0]
10003732:	9405      	str	r4, [sp, #20]
10003734:	2308      	movs	r3, #8
10003736:	9304      	str	r3, [sp, #16]
10003738:	4653      	mov	r3, sl
1000373a:	9303      	str	r3, [sp, #12]
1000373c:	2310      	movs	r3, #16
1000373e:	9302      	str	r3, [sp, #8]
10003740:	2300      	movs	r3, #0
10003742:	9301      	str	r3, [sp, #4]
10003744:	4643      	mov	r3, r8
10003746:	003a      	movs	r2, r7
10003748:	4659      	mov	r1, fp
1000374a:	0028      	movs	r0, r5
1000374c:	f7ff f89c 	bl	10002888 <_ntoa_long>
10003750:	0007      	movs	r7, r0
10003752:	9b11      	ldr	r3, [sp, #68]	; 0x44
10003754:	3301      	adds	r3, #1
10003756:	9311      	str	r3, [sp, #68]	; 0x44
10003758:	e52a      	b.n	100031b0 <_vsnprintf+0x20>
1000375a:	1c7c      	adds	r4, r7, #1
1000375c:	4643      	mov	r3, r8
1000375e:	003a      	movs	r2, r7
10003760:	4659      	mov	r1, fp
10003762:	2025      	movs	r0, #37	; 0x25
10003764:	47a8      	blx	r5
10003766:	9b11      	ldr	r3, [sp, #68]	; 0x44
10003768:	3301      	adds	r3, #1
1000376a:	9311      	str	r3, [sp, #68]	; 0x44
1000376c:	0027      	movs	r7, r4
1000376e:	e51f      	b.n	100031b0 <_vsnprintf+0x20>
10003770:	1c7c      	adds	r4, r7, #1
10003772:	4643      	mov	r3, r8
10003774:	003a      	movs	r2, r7
10003776:	4659      	mov	r1, fp
10003778:	47a8      	blx	r5
1000377a:	9b11      	ldr	r3, [sp, #68]	; 0x44
1000377c:	3301      	adds	r3, #1
1000377e:	9311      	str	r3, [sp, #68]	; 0x44
10003780:	0027      	movs	r7, r4
10003782:	e515      	b.n	100031b0 <_vsnprintf+0x20>
10003784:	4b0a      	ldr	r3, [pc, #40]	; (100037b0 <_vsnprintf+0x620>)
10003786:	469a      	mov	sl, r3
10003788:	e510      	b.n	100031ac <_vsnprintf+0x1c>
1000378a:	46aa      	mov	sl, r5
1000378c:	4547      	cmp	r7, r8
1000378e:	d302      	bcc.n	10003796 <_vsnprintf+0x606>
10003790:	4643      	mov	r3, r8
10003792:	1e5a      	subs	r2, r3, #1
10003794:	e000      	b.n	10003798 <_vsnprintf+0x608>
10003796:	003a      	movs	r2, r7
10003798:	4643      	mov	r3, r8
1000379a:	4659      	mov	r1, fp
1000379c:	2000      	movs	r0, #0
1000379e:	47d0      	blx	sl
100037a0:	0038      	movs	r0, r7
100037a2:	b013      	add	sp, #76	; 0x4c
100037a4:	bcf0      	pop	{r4, r5, r6, r7}
100037a6:	46bb      	mov	fp, r7
100037a8:	46b2      	mov	sl, r6
100037aa:	46a9      	mov	r9, r5
100037ac:	46a0      	mov	r8, r4
100037ae:	bdf0      	pop	{r4, r5, r6, r7, pc}
100037b0:	10002695 	.word	0x10002695

100037b4 <vfctprintf>:
100037b4:	b500      	push	{lr}
100037b6:	b085      	sub	sp, #20
100037b8:	9002      	str	r0, [sp, #8]
100037ba:	9103      	str	r1, [sp, #12]
100037bc:	2101      	movs	r1, #1
100037be:	9300      	str	r3, [sp, #0]
100037c0:	0013      	movs	r3, r2
100037c2:	424a      	negs	r2, r1
100037c4:	a902      	add	r1, sp, #8
100037c6:	4802      	ldr	r0, [pc, #8]	; (100037d0 <vfctprintf+0x1c>)
100037c8:	f7ff fce2 	bl	10003190 <_vsnprintf>
100037cc:	b005      	add	sp, #20
100037ce:	bd00      	pop	{pc}
100037d0:	10002697 	.word	0x10002697

100037d4 <_exit>:
100037d4:	be00      	bkpt	0x0000
100037d6:	e7fd      	b.n	100037d4 <_exit>

100037d8 <exit>:
100037d8:	b510      	push	{r4, lr}
100037da:	f7ff fffb 	bl	100037d4 <_exit>
	...

100037e0 <__assert_func>:
100037e0:	b510      	push	{r4, lr}
100037e2:	b082      	sub	sp, #8
100037e4:	000c      	movs	r4, r1
100037e6:	0019      	movs	r1, r3
100037e8:	2a00      	cmp	r2, #0
100037ea:	d00c      	beq.n	10003806 <__assert_func+0x26>
100037ec:	4b08      	ldr	r3, [pc, #32]	; (10003810 <__assert_func+0x30>)
100037ee:	2a00      	cmp	r2, #0
100037f0:	d00b      	beq.n	1000380a <__assert_func+0x2a>
100037f2:	9201      	str	r2, [sp, #4]
100037f4:	9300      	str	r3, [sp, #0]
100037f6:	0023      	movs	r3, r4
100037f8:	0002      	movs	r2, r0
100037fa:	4806      	ldr	r0, [pc, #24]	; (10003814 <__assert_func+0x34>)
100037fc:	f000 f960 	bl	10003ac0 <__wrap_printf>
10003800:	2001      	movs	r0, #1
10003802:	f7ff ffe7 	bl	100037d4 <_exit>
10003806:	4b04      	ldr	r3, [pc, #16]	; (10003818 <__assert_func+0x38>)
10003808:	e7f1      	b.n	100037ee <__assert_func+0xe>
1000380a:	4a03      	ldr	r2, [pc, #12]	; (10003818 <__assert_func+0x38>)
1000380c:	e7f1      	b.n	100037f2 <__assert_func+0x12>
1000380e:	46c0      	nop			; (mov r8, r8)
10003810:	100047d0 	.word	0x100047d0
10003814:	100047e0 	.word	0x100047e0
10003818:	100047dc 	.word	0x100047dc

1000381c <runtime_init>:
1000381c:	b510      	push	{r4, lr}
1000381e:	f3ef 8305 	mrs	r3, IPSR
10003822:	2b00      	cmp	r3, #0
10003824:	d000      	beq.n	10003828 <runtime_init+0xc>
10003826:	be00      	bkpt	0x0000
10003828:	f7fd fe8c 	bl	10001544 <runtime_run_initializers>
1000382c:	4c03      	ldr	r4, [pc, #12]	; (1000383c <runtime_init+0x20>)
1000382e:	e001      	b.n	10003834 <runtime_init+0x18>
10003830:	cc08      	ldmia	r4!, {r3}
10003832:	4798      	blx	r3
10003834:	4b02      	ldr	r3, [pc, #8]	; (10003840 <runtime_init+0x24>)
10003836:	429c      	cmp	r4, r3
10003838:	d3fa      	bcc.n	10003830 <runtime_init+0x14>
1000383a:	bd10      	pop	{r4, pc}
1000383c:	10003de4 	.word	0x10003de4
10003840:	10003de8 	.word	0x10003de8

10003844 <stdio_out_chars_no_crlf>:
10003844:	b510      	push	{r4, lr}
10003846:	0003      	movs	r3, r0
10003848:	0008      	movs	r0, r1
1000384a:	0011      	movs	r1, r2
1000384c:	681b      	ldr	r3, [r3, #0]
1000384e:	4798      	blx	r3
10003850:	bd10      	pop	{r4, pc}
	...

10003854 <stdio_out_chars_crlf>:
10003854:	b5f8      	push	{r3, r4, r5, r6, r7, lr}
10003856:	0007      	movs	r7, r0
10003858:	000d      	movs	r5, r1
1000385a:	0016      	movs	r6, r2
1000385c:	7d43      	ldrb	r3, [r0, #21]
1000385e:	2b00      	cmp	r3, #0
10003860:	d002      	beq.n	10003868 <stdio_out_chars_crlf+0x14>
10003862:	2400      	movs	r4, #0
10003864:	2000      	movs	r0, #0
10003866:	e00c      	b.n	10003882 <stdio_out_chars_crlf+0x2e>
10003868:	6803      	ldr	r3, [r0, #0]
1000386a:	0011      	movs	r1, r2
1000386c:	0028      	movs	r0, r5
1000386e:	4798      	blx	r3
10003870:	e02d      	b.n	100038ce <stdio_out_chars_crlf+0x7a>
10003872:	7d3b      	ldrb	r3, [r7, #20]
10003874:	e010      	b.n	10003898 <stdio_out_chars_crlf+0x44>
10003876:	2102      	movs	r1, #2
10003878:	4815      	ldr	r0, [pc, #84]	; (100038d0 <stdio_out_chars_crlf+0x7c>)
1000387a:	683b      	ldr	r3, [r7, #0]
1000387c:	4798      	blx	r3
1000387e:	1c60      	adds	r0, r4, #1
10003880:	3401      	adds	r4, #1
10003882:	42b4      	cmp	r4, r6
10003884:	da14      	bge.n	100038b0 <stdio_out_chars_crlf+0x5c>
10003886:	2c00      	cmp	r4, #0
10003888:	ddf3      	ble.n	10003872 <stdio_out_chars_crlf+0x1e>
1000388a:	192b      	adds	r3, r5, r4
1000388c:	3b01      	subs	r3, #1
1000388e:	781b      	ldrb	r3, [r3, #0]
10003890:	3b0d      	subs	r3, #13
10003892:	425a      	negs	r2, r3
10003894:	4153      	adcs	r3, r2
10003896:	b2db      	uxtb	r3, r3
10003898:	5d2a      	ldrb	r2, [r5, r4]
1000389a:	2a0a      	cmp	r2, #10
1000389c:	d1f0      	bne.n	10003880 <stdio_out_chars_crlf+0x2c>
1000389e:	2b00      	cmp	r3, #0
100038a0:	d1ee      	bne.n	10003880 <stdio_out_chars_crlf+0x2c>
100038a2:	42a0      	cmp	r0, r4
100038a4:	dae7      	bge.n	10003876 <stdio_out_chars_crlf+0x22>
100038a6:	1a21      	subs	r1, r4, r0
100038a8:	1828      	adds	r0, r5, r0
100038aa:	683b      	ldr	r3, [r7, #0]
100038ac:	4798      	blx	r3
100038ae:	e7e2      	b.n	10003876 <stdio_out_chars_crlf+0x22>
100038b0:	42b0      	cmp	r0, r6
100038b2:	da03      	bge.n	100038bc <stdio_out_chars_crlf+0x68>
100038b4:	1a31      	subs	r1, r6, r0
100038b6:	1828      	adds	r0, r5, r0
100038b8:	683b      	ldr	r3, [r7, #0]
100038ba:	4798      	blx	r3
100038bc:	2e00      	cmp	r6, #0
100038be:	dd06      	ble.n	100038ce <stdio_out_chars_crlf+0x7a>
100038c0:	19ad      	adds	r5, r5, r6
100038c2:	3d01      	subs	r5, #1
100038c4:	782b      	ldrb	r3, [r5, #0]
100038c6:	3b0d      	subs	r3, #13
100038c8:	425a      	negs	r2, r3
100038ca:	4153      	adcs	r3, r2
100038cc:	753b      	strb	r3, [r7, #20]
100038ce:	bdf8      	pop	{r3, r4, r5, r6, r7, pc}
100038d0:	10004810 	.word	0x10004810

100038d4 <stdio_stack_buffer_flush>:
100038d4:	b570      	push	{r4, r5, r6, lr}
100038d6:	0005      	movs	r5, r0
100038d8:	6803      	ldr	r3, [r0, #0]
100038da:	2b00      	cmp	r3, #0
100038dc:	d016      	beq.n	1000390c <stdio_stack_buffer_flush+0x38>
100038de:	4b0c      	ldr	r3, [pc, #48]	; (10003910 <stdio_stack_buffer_flush+0x3c>)
100038e0:	681c      	ldr	r4, [r3, #0]
100038e2:	e005      	b.n	100038f0 <stdio_stack_buffer_flush+0x1c>
100038e4:	0029      	movs	r1, r5
100038e6:	c904      	ldmia	r1!, {r2}
100038e8:	0020      	movs	r0, r4
100038ea:	f7ff ffb3 	bl	10003854 <stdio_out_chars_crlf>
100038ee:	6924      	ldr	r4, [r4, #16]
100038f0:	2c00      	cmp	r4, #0
100038f2:	d009      	beq.n	10003908 <stdio_stack_buffer_flush+0x34>
100038f4:	6823      	ldr	r3, [r4, #0]
100038f6:	2b00      	cmp	r3, #0
100038f8:	d0f9      	beq.n	100038ee <stdio_stack_buffer_flush+0x1a>
100038fa:	4b06      	ldr	r3, [pc, #24]	; (10003914 <stdio_stack_buffer_flush+0x40>)
100038fc:	681b      	ldr	r3, [r3, #0]
100038fe:	2b00      	cmp	r3, #0
10003900:	d0f0      	beq.n	100038e4 <stdio_stack_buffer_flush+0x10>
10003902:	42a3      	cmp	r3, r4
10003904:	d1f3      	bne.n	100038ee <stdio_stack_buffer_flush+0x1a>
10003906:	e7ed      	b.n	100038e4 <stdio_stack_buffer_flush+0x10>
10003908:	2300      	movs	r3, #0
1000390a:	602b      	str	r3, [r5, #0]
1000390c:	bd70      	pop	{r4, r5, r6, pc}
1000390e:	46c0      	nop			; (mov r8, r8)
10003910:	200004b0 	.word	0x200004b0
10003914:	200004b4 	.word	0x200004b4

10003918 <stdio_buffered_printer>:
10003918:	b570      	push	{r4, r5, r6, lr}
1000391a:	0005      	movs	r5, r0
1000391c:	000c      	movs	r4, r1
1000391e:	680b      	ldr	r3, [r1, #0]
10003920:	2b80      	cmp	r3, #128	; 0x80
10003922:	d005      	beq.n	10003930 <stdio_buffered_printer+0x18>
10003924:	6821      	ldr	r1, [r4, #0]
10003926:	1c4b      	adds	r3, r1, #1
10003928:	6023      	str	r3, [r4, #0]
1000392a:	1864      	adds	r4, r4, r1
1000392c:	7125      	strb	r5, [r4, #4]
1000392e:	bd70      	pop	{r4, r5, r6, pc}
10003930:	0008      	movs	r0, r1
10003932:	f7ff ffcf 	bl	100038d4 <stdio_stack_buffer_flush>
10003936:	e7f5      	b.n	10003924 <stdio_buffered_printer+0xc>

10003938 <stdout_serialize_begin>:
10003938:	b510      	push	{r4, lr}
1000393a:	f7fd fbf9 	bl	10001130 <time_us_64>
1000393e:	4a07      	ldr	r2, [pc, #28]	; (1000395c <stdout_serialize_begin+0x24>)
10003940:	2300      	movs	r3, #0
10003942:	1812      	adds	r2, r2, r0
10003944:	414b      	adcs	r3, r1
10003946:	2b00      	cmp	r3, #0
10003948:	db03      	blt.n	10003952 <stdout_serialize_begin+0x1a>
1000394a:	4805      	ldr	r0, [pc, #20]	; (10003960 <stdout_serialize_begin+0x28>)
1000394c:	f000 fa24 	bl	10003d98 <__mutex_try_enter_block_until_veneer>
10003950:	bd10      	pop	{r4, pc}
10003952:	2201      	movs	r2, #1
10003954:	4252      	negs	r2, r2
10003956:	4b03      	ldr	r3, [pc, #12]	; (10003964 <stdout_serialize_begin+0x2c>)
10003958:	e7f7      	b.n	1000394a <stdout_serialize_begin+0x12>
1000395a:	46c0      	nop			; (mov r8, r8)
1000395c:	000f4240 	.word	0x000f4240
10003960:	200002d8 	.word	0x200002d8
10003964:	7fffffff 	.word	0x7fffffff

10003968 <stdout_serialize_end>:
10003968:	b510      	push	{r4, lr}
1000396a:	4802      	ldr	r0, [pc, #8]	; (10003974 <stdout_serialize_end+0xc>)
1000396c:	f000 f9fc 	bl	10003d68 <__mutex_exit_veneer>
10003970:	bd10      	pop	{r4, pc}
10003972:	46c0      	nop			; (mov r8, r8)
10003974:	200002d8 	.word	0x200002d8

10003978 <stdio_put_string>:
10003978:	b5f0      	push	{r4, r5, r6, r7, lr}
1000397a:	46ce      	mov	lr, r9
1000397c:	4647      	mov	r7, r8
1000397e:	b580      	push	{r7, lr}
10003980:	b083      	sub	sp, #12
10003982:	0006      	movs	r6, r0
10003984:	000d      	movs	r5, r1
10003986:	4690      	mov	r8, r2
10003988:	001c      	movs	r4, r3
1000398a:	f7ff ffd5 	bl	10003938 <stdout_serialize_begin>
1000398e:	4681      	mov	r9, r0
10003990:	1c6b      	adds	r3, r5, #1
10003992:	d005      	beq.n	100039a0 <stdio_put_string+0x28>
10003994:	2c00      	cmp	r4, #0
10003996:	d008      	beq.n	100039aa <stdio_put_string+0x32>
10003998:	4f18      	ldr	r7, [pc, #96]	; (100039fc <stdio_put_string+0x84>)
1000399a:	4b19      	ldr	r3, [pc, #100]	; (10003a00 <stdio_put_string+0x88>)
1000399c:	681c      	ldr	r4, [r3, #0]
1000399e:	e007      	b.n	100039b0 <stdio_put_string+0x38>
100039a0:	0030      	movs	r0, r6
100039a2:	f000 f9b1 	bl	10003d08 <strlen>
100039a6:	0005      	movs	r5, r0
100039a8:	e7f4      	b.n	10003994 <stdio_put_string+0x1c>
100039aa:	4f16      	ldr	r7, [pc, #88]	; (10003a04 <stdio_put_string+0x8c>)
100039ac:	e7f5      	b.n	1000399a <stdio_put_string+0x22>
100039ae:	6924      	ldr	r4, [r4, #16]
100039b0:	2c00      	cmp	r4, #0
100039b2:	d017      	beq.n	100039e4 <stdio_put_string+0x6c>
100039b4:	6823      	ldr	r3, [r4, #0]
100039b6:	2b00      	cmp	r3, #0
100039b8:	d0f9      	beq.n	100039ae <stdio_put_string+0x36>
100039ba:	4b13      	ldr	r3, [pc, #76]	; (10003a08 <stdio_put_string+0x90>)
100039bc:	681b      	ldr	r3, [r3, #0]
100039be:	2b00      	cmp	r3, #0
100039c0:	d001      	beq.n	100039c6 <stdio_put_string+0x4e>
100039c2:	42a3      	cmp	r3, r4
100039c4:	d1f3      	bne.n	100039ae <stdio_put_string+0x36>
100039c6:	002a      	movs	r2, r5
100039c8:	0031      	movs	r1, r6
100039ca:	0020      	movs	r0, r4
100039cc:	47b8      	blx	r7
100039ce:	4643      	mov	r3, r8
100039d0:	2b00      	cmp	r3, #0
100039d2:	d0ec      	beq.n	100039ae <stdio_put_string+0x36>
100039d4:	466b      	mov	r3, sp
100039d6:	1dd9      	adds	r1, r3, #7
100039d8:	230a      	movs	r3, #10
100039da:	700b      	strb	r3, [r1, #0]
100039dc:	2201      	movs	r2, #1
100039de:	0020      	movs	r0, r4
100039e0:	47b8      	blx	r7
100039e2:	e7e4      	b.n	100039ae <stdio_put_string+0x36>
100039e4:	464b      	mov	r3, r9
100039e6:	2b00      	cmp	r3, #0
100039e8:	d105      	bne.n	100039f6 <stdio_put_string+0x7e>
100039ea:	0028      	movs	r0, r5
100039ec:	b003      	add	sp, #12
100039ee:	bcc0      	pop	{r6, r7}
100039f0:	46b9      	mov	r9, r7
100039f2:	46b0      	mov	r8, r6
100039f4:	bdf0      	pop	{r4, r5, r6, r7, pc}
100039f6:	f7ff ffb7 	bl	10003968 <stdout_serialize_end>
100039fa:	e7f6      	b.n	100039ea <stdio_put_string+0x72>
100039fc:	10003855 	.word	0x10003855
10003a00:	200004b0 	.word	0x200004b0
10003a04:	10003845 	.word	0x10003845
10003a08:	200004b4 	.word	0x200004b4

10003a0c <stdio_set_driver_enabled>:
10003a0c:	4a09      	ldr	r2, [pc, #36]	; (10003a34 <stdio_set_driver_enabled+0x28>)
10003a0e:	e001      	b.n	10003a14 <stdio_set_driver_enabled+0x8>
10003a10:	3310      	adds	r3, #16
10003a12:	001a      	movs	r2, r3
10003a14:	6813      	ldr	r3, [r2, #0]
10003a16:	2b00      	cmp	r3, #0
10003a18:	d008      	beq.n	10003a2c <stdio_set_driver_enabled+0x20>
10003a1a:	4283      	cmp	r3, r0
10003a1c:	d1f8      	bne.n	10003a10 <stdio_set_driver_enabled+0x4>
10003a1e:	2900      	cmp	r1, #0
10003a20:	d107      	bne.n	10003a32 <stdio_set_driver_enabled+0x26>
10003a22:	6903      	ldr	r3, [r0, #16]
10003a24:	6013      	str	r3, [r2, #0]
10003a26:	2300      	movs	r3, #0
10003a28:	6103      	str	r3, [r0, #16]
10003a2a:	e002      	b.n	10003a32 <stdio_set_driver_enabled+0x26>
10003a2c:	2900      	cmp	r1, #0
10003a2e:	d000      	beq.n	10003a32 <stdio_set_driver_enabled+0x26>
10003a30:	6010      	str	r0, [r2, #0]
10003a32:	4770      	bx	lr
10003a34:	200004b0 	.word	0x200004b0

10003a38 <stdio_flush>:
10003a38:	b510      	push	{r4, lr}
10003a3a:	4b06      	ldr	r3, [pc, #24]	; (10003a54 <stdio_flush+0x1c>)
10003a3c:	681c      	ldr	r4, [r3, #0]
10003a3e:	e001      	b.n	10003a44 <stdio_flush+0xc>
10003a40:	4798      	blx	r3
10003a42:	6924      	ldr	r4, [r4, #16]
10003a44:	2c00      	cmp	r4, #0
10003a46:	d003      	beq.n	10003a50 <stdio_flush+0x18>
10003a48:	6863      	ldr	r3, [r4, #4]
10003a4a:	2b00      	cmp	r3, #0
10003a4c:	d1f8      	bne.n	10003a40 <stdio_flush+0x8>
10003a4e:	e7f8      	b.n	10003a42 <stdio_flush+0xa>
10003a50:	bd10      	pop	{r4, pc}
10003a52:	46c0      	nop			; (mov r8, r8)
10003a54:	200004b0 	.word	0x200004b0

10003a58 <stdio_init_all>:
10003a58:	b510      	push	{r4, lr}
10003a5a:	f000 f93d 	bl	10003cd8 <stdio_uart_init>
10003a5e:	2001      	movs	r0, #1
10003a60:	bd10      	pop	{r4, pc}

10003a62 <__wrap_puts>:
10003a62:	b570      	push	{r4, r5, r6, lr}
10003a64:	0005      	movs	r5, r0
10003a66:	f000 f94f 	bl	10003d08 <strlen>
10003a6a:	0004      	movs	r4, r0
10003a6c:	2301      	movs	r3, #1
10003a6e:	2201      	movs	r2, #1
10003a70:	0001      	movs	r1, r0
10003a72:	0028      	movs	r0, r5
10003a74:	f7ff ff80 	bl	10003978 <stdio_put_string>
10003a78:	f7ff ffde 	bl	10003a38 <stdio_flush>
10003a7c:	0020      	movs	r0, r4
10003a7e:	bd70      	pop	{r4, r5, r6, pc}

10003a80 <__wrap_vprintf>:
10003a80:	b570      	push	{r4, r5, r6, lr}
10003a82:	b0a2      	sub	sp, #136	; 0x88
10003a84:	0004      	movs	r4, r0
10003a86:	000e      	movs	r6, r1
10003a88:	f7ff ff56 	bl	10003938 <stdout_serialize_begin>
10003a8c:	0005      	movs	r5, r0
10003a8e:	2300      	movs	r3, #0
10003a90:	9301      	str	r3, [sp, #4]
10003a92:	0033      	movs	r3, r6
10003a94:	0022      	movs	r2, r4
10003a96:	a901      	add	r1, sp, #4
10003a98:	4808      	ldr	r0, [pc, #32]	; (10003abc <__wrap_vprintf+0x3c>)
10003a9a:	f7ff fe8b 	bl	100037b4 <vfctprintf>
10003a9e:	0004      	movs	r4, r0
10003aa0:	a801      	add	r0, sp, #4
10003aa2:	f7ff ff17 	bl	100038d4 <stdio_stack_buffer_flush>
10003aa6:	f7ff ffc7 	bl	10003a38 <stdio_flush>
10003aaa:	2d00      	cmp	r5, #0
10003aac:	d102      	bne.n	10003ab4 <__wrap_vprintf+0x34>
10003aae:	0020      	movs	r0, r4
10003ab0:	b022      	add	sp, #136	; 0x88
10003ab2:	bd70      	pop	{r4, r5, r6, pc}
10003ab4:	f7ff ff58 	bl	10003968 <stdout_serialize_end>
10003ab8:	e7f9      	b.n	10003aae <__wrap_vprintf+0x2e>
10003aba:	46c0      	nop			; (mov r8, r8)
10003abc:	10003919 	.word	0x10003919

10003ac0 <__wrap_printf>:
10003ac0:	b40f      	push	{r0, r1, r2, r3}
10003ac2:	b500      	push	{lr}
10003ac4:	b083      	sub	sp, #12
10003ac6:	a904      	add	r1, sp, #16
10003ac8:	c901      	ldmia	r1!, {r0}
10003aca:	9101      	str	r1, [sp, #4]
10003acc:	f7ff ffd8 	bl	10003a80 <__wrap_vprintf>
10003ad0:	b003      	add	sp, #12
10003ad2:	bc08      	pop	{r3}
10003ad4:	b004      	add	sp, #16
10003ad6:	4718      	bx	r3

10003ad8 <stdio_uart_out_chars>:
10003ad8:	b5f0      	push	{r4, r5, r6, r7, lr}
10003ada:	b083      	sub	sp, #12
10003adc:	0005      	movs	r5, r0
10003ade:	000e      	movs	r6, r1
10003ae0:	2400      	movs	r4, #0
10003ae2:	e00f      	b.n	10003b04 <stdio_uart_out_chars+0x2c>
10003ae4:	466b      	mov	r3, sp
10003ae6:	1dd9      	adds	r1, r3, #7
10003ae8:	230d      	movs	r3, #13
10003aea:	700b      	strb	r3, [r1, #0]
10003aec:	2000      	movs	r0, #0
10003aee:	2800      	cmp	r0, #0
10003af0:	d116      	bne.n	10003b20 <stdio_uart_out_chars+0x48>
10003af2:	6993      	ldr	r3, [r2, #24]
10003af4:	069b      	lsls	r3, r3, #26
10003af6:	d4fc      	bmi.n	10003af2 <stdio_uart_out_chars+0x1a>
10003af8:	780b      	ldrb	r3, [r1, #0]
10003afa:	6013      	str	r3, [r2, #0]
10003afc:	3001      	adds	r0, #1
10003afe:	3101      	adds	r1, #1
10003b00:	e7f5      	b.n	10003aee <stdio_uart_out_chars+0x16>
10003b02:	3401      	adds	r4, #1
10003b04:	42b4      	cmp	r4, r6
10003b06:	da19      	bge.n	10003b3c <stdio_uart_out_chars+0x64>
10003b08:	4b0d      	ldr	r3, [pc, #52]	; (10003b40 <stdio_uart_out_chars+0x68>)
10003b0a:	681a      	ldr	r2, [r3, #0]
10003b0c:	5d2f      	ldrb	r7, [r5, r4]
10003b0e:	4b0d      	ldr	r3, [pc, #52]	; (10003b44 <stdio_uart_out_chars+0x6c>)
10003b10:	18d3      	adds	r3, r2, r3
10003b12:	4259      	negs	r1, r3
10003b14:	414b      	adcs	r3, r1
10003b16:	005b      	lsls	r3, r3, #1
10003b18:	490b      	ldr	r1, [pc, #44]	; (10003b48 <stdio_uart_out_chars+0x70>)
10003b1a:	5e5b      	ldrsh	r3, [r3, r1]
10003b1c:	42bb      	cmp	r3, r7
10003b1e:	d0e1      	beq.n	10003ae4 <stdio_uart_out_chars+0xc>
10003b20:	466b      	mov	r3, sp
10003b22:	1dd9      	adds	r1, r3, #7
10003b24:	700f      	strb	r7, [r1, #0]
10003b26:	2000      	movs	r0, #0
10003b28:	2800      	cmp	r0, #0
10003b2a:	d1ea      	bne.n	10003b02 <stdio_uart_out_chars+0x2a>
10003b2c:	6993      	ldr	r3, [r2, #24]
10003b2e:	069b      	lsls	r3, r3, #26
10003b30:	d4fc      	bmi.n	10003b2c <stdio_uart_out_chars+0x54>
10003b32:	780b      	ldrb	r3, [r1, #0]
10003b34:	6013      	str	r3, [r2, #0]
10003b36:	3001      	adds	r0, #1
10003b38:	3101      	adds	r1, #1
10003b3a:	e7f5      	b.n	10003b28 <stdio_uart_out_chars+0x50>
10003b3c:	b003      	add	sp, #12
10003b3e:	bdf0      	pop	{r4, r5, r6, r7, pc}
10003b40:	200006d4 	.word	0x200006d4
10003b44:	bffc8000 	.word	0xbffc8000
10003b48:	200006d0 	.word	0x200006d0

10003b4c <stdio_uart_in_chars>:
10003b4c:	b5f0      	push	{r4, r5, r6, r7, lr}
10003b4e:	b083      	sub	sp, #12
10003b50:	0006      	movs	r6, r0
10003b52:	000f      	movs	r7, r1
10003b54:	2500      	movs	r5, #0
10003b56:	e004      	b.n	10003b62 <stdio_uart_in_chars+0x16>
10003b58:	466b      	mov	r3, sp
10003b5a:	3307      	adds	r3, #7
10003b5c:	781b      	ldrb	r3, [r3, #0]
10003b5e:	702b      	strb	r3, [r5, #0]
10003b60:	0025      	movs	r5, r4
10003b62:	42bd      	cmp	r5, r7
10003b64:	da15      	bge.n	10003b92 <stdio_uart_in_chars+0x46>
10003b66:	4b16      	ldr	r3, [pc, #88]	; (10003bc0 <stdio_uart_in_chars+0x74>)
10003b68:	681a      	ldr	r2, [r3, #0]
10003b6a:	6993      	ldr	r3, [r2, #24]
10003b6c:	2410      	movs	r4, #16
10003b6e:	0021      	movs	r1, r4
10003b70:	4019      	ands	r1, r3
10003b72:	421c      	tst	r4, r3
10003b74:	d10d      	bne.n	10003b92 <stdio_uart_in_chars+0x46>
10003b76:	1c6c      	adds	r4, r5, #1
10003b78:	1975      	adds	r5, r6, r5
10003b7a:	466b      	mov	r3, sp
10003b7c:	1dd8      	adds	r0, r3, #7
10003b7e:	2900      	cmp	r1, #0
10003b80:	d1ea      	bne.n	10003b58 <stdio_uart_in_chars+0xc>
10003b82:	6993      	ldr	r3, [r2, #24]
10003b84:	06db      	lsls	r3, r3, #27
10003b86:	d4fc      	bmi.n	10003b82 <stdio_uart_in_chars+0x36>
10003b88:	6813      	ldr	r3, [r2, #0]
10003b8a:	7003      	strb	r3, [r0, #0]
10003b8c:	3101      	adds	r1, #1
10003b8e:	3001      	adds	r0, #1
10003b90:	e7f5      	b.n	10003b7e <stdio_uart_in_chars+0x32>
10003b92:	4b0c      	ldr	r3, [pc, #48]	; (10003bc4 <stdio_uart_in_chars+0x78>)
10003b94:	681b      	ldr	r3, [r3, #0]
10003b96:	2b00      	cmp	r3, #0
10003b98:	d00a      	beq.n	10003bb0 <stdio_uart_in_chars+0x64>
10003b9a:	4b09      	ldr	r3, [pc, #36]	; (10003bc0 <stdio_uart_in_chars+0x74>)
10003b9c:	681b      	ldr	r3, [r3, #0]
10003b9e:	2250      	movs	r2, #80	; 0x50
10003ba0:	639a      	str	r2, [r3, #56]	; 0x38
10003ba2:	6b59      	ldr	r1, [r3, #52]	; 0x34
10003ba4:	3a18      	subs	r2, #24
10003ba6:	400a      	ands	r2, r1
10003ba8:	4907      	ldr	r1, [pc, #28]	; (10003bc8 <stdio_uart_in_chars+0x7c>)
10003baa:	468c      	mov	ip, r1
10003bac:	4463      	add	r3, ip
10003bae:	601a      	str	r2, [r3, #0]
10003bb0:	2d00      	cmp	r5, #0
10003bb2:	d002      	beq.n	10003bba <stdio_uart_in_chars+0x6e>
10003bb4:	0028      	movs	r0, r5
10003bb6:	b003      	add	sp, #12
10003bb8:	bdf0      	pop	{r4, r5, r6, r7, pc}
10003bba:	3d03      	subs	r5, #3
10003bbc:	e7fa      	b.n	10003bb4 <stdio_uart_in_chars+0x68>
10003bbe:	46c0      	nop			; (mov r8, r8)
10003bc0:	200006d4 	.word	0x200006d4
10003bc4:	2000047c 	.word	0x2000047c
10003bc8:	00001034 	.word	0x00001034

10003bcc <on_uart_rx>:
10003bcc:	b510      	push	{r4, lr}
10003bce:	4b06      	ldr	r3, [pc, #24]	; (10003be8 <on_uart_rx+0x1c>)
10003bd0:	681b      	ldr	r3, [r3, #0]
10003bd2:	2b00      	cmp	r3, #0
10003bd4:	d006      	beq.n	10003be4 <on_uart_rx+0x18>
10003bd6:	4a05      	ldr	r2, [pc, #20]	; (10003bec <on_uart_rx+0x20>)
10003bd8:	6812      	ldr	r2, [r2, #0]
10003bda:	2100      	movs	r1, #0
10003bdc:	6391      	str	r1, [r2, #56]	; 0x38
10003bde:	4a04      	ldr	r2, [pc, #16]	; (10003bf0 <on_uart_rx+0x24>)
10003be0:	6810      	ldr	r0, [r2, #0]
10003be2:	4798      	blx	r3
10003be4:	bd10      	pop	{r4, pc}
10003be6:	46c0      	nop			; (mov r8, r8)
10003be8:	2000047c 	.word	0x2000047c
10003bec:	200006d4 	.word	0x200006d4
10003bf0:	20000480 	.word	0x20000480

10003bf4 <stdio_uart_out_flush>:
10003bf4:	4b02      	ldr	r3, [pc, #8]	; (10003c00 <stdio_uart_out_flush+0xc>)
10003bf6:	699b      	ldr	r3, [r3, #24]
10003bf8:	071b      	lsls	r3, r3, #28
10003bfa:	d4fb      	bmi.n	10003bf4 <stdio_uart_out_flush>
10003bfc:	4770      	bx	lr
10003bfe:	46c0      	nop			; (mov r8, r8)
10003c00:	40034000 	.word	0x40034000

10003c04 <stdio_uart_set_chars_available_callback>:
10003c04:	b570      	push	{r4, r5, r6, lr}
10003c06:	0004      	movs	r4, r0
10003c08:	000d      	movs	r5, r1
10003c0a:	4b1c      	ldr	r3, [pc, #112]	; (10003c7c <stdio_uart_set_chars_available_callback+0x78>)
10003c0c:	681b      	ldr	r3, [r3, #0]
10003c0e:	4a1c      	ldr	r2, [pc, #112]	; (10003c80 <stdio_uart_set_chars_available_callback+0x7c>)
10003c10:	4293      	cmp	r3, r2
10003c12:	d00d      	beq.n	10003c30 <stdio_uart_set_chars_available_callback+0x2c>
10003c14:	2614      	movs	r6, #20
10003c16:	2c00      	cmp	r4, #0
10003c18:	d003      	beq.n	10003c22 <stdio_uart_set_chars_available_callback+0x1e>
10003c1a:	4a1a      	ldr	r2, [pc, #104]	; (10003c84 <stdio_uart_set_chars_available_callback+0x80>)
10003c1c:	6812      	ldr	r2, [r2, #0]
10003c1e:	2a00      	cmp	r2, #0
10003c20:	d008      	beq.n	10003c34 <stdio_uart_set_chars_available_callback+0x30>
10003c22:	2c00      	cmp	r4, #0
10003c24:	d01a      	beq.n	10003c5c <stdio_uart_set_chars_available_callback+0x58>
10003c26:	4b17      	ldr	r3, [pc, #92]	; (10003c84 <stdio_uart_set_chars_available_callback+0x80>)
10003c28:	601c      	str	r4, [r3, #0]
10003c2a:	4b17      	ldr	r3, [pc, #92]	; (10003c88 <stdio_uart_set_chars_available_callback+0x84>)
10003c2c:	601d      	str	r5, [r3, #0]
10003c2e:	bd70      	pop	{r4, r5, r6, pc}
10003c30:	2615      	movs	r6, #21
10003c32:	e7f0      	b.n	10003c16 <stdio_uart_set_chars_available_callback+0x12>
10003c34:	4915      	ldr	r1, [pc, #84]	; (10003c8c <stdio_uart_set_chars_available_callback+0x88>)
10003c36:	0030      	movs	r0, r6
10003c38:	f7fc fd4c 	bl	100006d4 <irq_set_exclusive_handler>
10003c3c:	2101      	movs	r1, #1
10003c3e:	0030      	movs	r0, r6
10003c40:	f7fc fd36 	bl	100006b0 <irq_set_enabled>
10003c44:	4b0d      	ldr	r3, [pc, #52]	; (10003c7c <stdio_uart_set_chars_available_callback+0x78>)
10003c46:	681b      	ldr	r3, [r3, #0]
10003c48:	2250      	movs	r2, #80	; 0x50
10003c4a:	639a      	str	r2, [r3, #56]	; 0x38
10003c4c:	6b59      	ldr	r1, [r3, #52]	; 0x34
10003c4e:	3a18      	subs	r2, #24
10003c50:	400a      	ands	r2, r1
10003c52:	490f      	ldr	r1, [pc, #60]	; (10003c90 <stdio_uart_set_chars_available_callback+0x8c>)
10003c54:	468c      	mov	ip, r1
10003c56:	4463      	add	r3, ip
10003c58:	601a      	str	r2, [r3, #0]
10003c5a:	e7e4      	b.n	10003c26 <stdio_uart_set_chars_available_callback+0x22>
10003c5c:	4a09      	ldr	r2, [pc, #36]	; (10003c84 <stdio_uart_set_chars_available_callback+0x80>)
10003c5e:	6812      	ldr	r2, [r2, #0]
10003c60:	2a00      	cmp	r2, #0
10003c62:	d0e0      	beq.n	10003c26 <stdio_uart_set_chars_available_callback+0x22>
10003c64:	2200      	movs	r2, #0
10003c66:	639a      	str	r2, [r3, #56]	; 0x38
10003c68:	2100      	movs	r1, #0
10003c6a:	0030      	movs	r0, r6
10003c6c:	f7fc fd20 	bl	100006b0 <irq_set_enabled>
10003c70:	4906      	ldr	r1, [pc, #24]	; (10003c8c <stdio_uart_set_chars_available_callback+0x88>)
10003c72:	0030      	movs	r0, r6
10003c74:	f7fc fd58 	bl	10000728 <irq_remove_handler>
10003c78:	e7d5      	b.n	10003c26 <stdio_uart_set_chars_available_callback+0x22>
10003c7a:	46c0      	nop			; (mov r8, r8)
10003c7c:	200006d4 	.word	0x200006d4
10003c80:	40038000 	.word	0x40038000
10003c84:	2000047c 	.word	0x2000047c
10003c88:	20000480 	.word	0x20000480
10003c8c:	10003bcd 	.word	0x10003bcd
10003c90:	00001034 	.word	0x00001034

10003c94 <stdio_uart_init_full>:
10003c94:	b570      	push	{r4, r5, r6, lr}
10003c96:	000d      	movs	r5, r1
10003c98:	001c      	movs	r4, r3
10003c9a:	4b0d      	ldr	r3, [pc, #52]	; (10003cd0 <stdio_uart_init_full+0x3c>)
10003c9c:	6018      	str	r0, [r3, #0]
10003c9e:	2a00      	cmp	r2, #0
10003ca0:	da0b      	bge.n	10003cba <stdio_uart_init_full+0x26>
10003ca2:	2c00      	cmp	r4, #0
10003ca4:	da0e      	bge.n	10003cc4 <stdio_uart_init_full+0x30>
10003ca6:	4b0a      	ldr	r3, [pc, #40]	; (10003cd0 <stdio_uart_init_full+0x3c>)
10003ca8:	6818      	ldr	r0, [r3, #0]
10003caa:	0029      	movs	r1, r5
10003cac:	f7fd fac8 	bl	10001240 <uart_init>
10003cb0:	2101      	movs	r1, #1
10003cb2:	4808      	ldr	r0, [pc, #32]	; (10003cd4 <stdio_uart_init_full+0x40>)
10003cb4:	f7ff feaa 	bl	10003a0c <stdio_set_driver_enabled>
10003cb8:	bd70      	pop	{r4, r5, r6, pc}
10003cba:	2102      	movs	r1, #2
10003cbc:	0010      	movs	r0, r2
10003cbe:	f7fc fbc9 	bl	10000454 <gpio_set_function>
10003cc2:	e7ee      	b.n	10003ca2 <stdio_uart_init_full+0xe>
10003cc4:	2102      	movs	r1, #2
10003cc6:	0020      	movs	r0, r4
10003cc8:	f7fc fbc4 	bl	10000454 <gpio_set_function>
10003ccc:	e7eb      	b.n	10003ca6 <stdio_uart_init_full+0x12>
10003cce:	46c0      	nop			; (mov r8, r8)
10003cd0:	200006d4 	.word	0x200006d4
10003cd4:	200002c0 	.word	0x200002c0

10003cd8 <stdio_uart_init>:
10003cd8:	b510      	push	{r4, lr}
10003cda:	4b07      	ldr	r3, [pc, #28]	; (10003cf8 <stdio_uart_init+0x20>)
10003cdc:	781b      	ldrb	r3, [r3, #0]
10003cde:	4b07      	ldr	r3, [pc, #28]	; (10003cfc <stdio_uart_init+0x24>)
10003ce0:	781b      	ldrb	r3, [r3, #0]
10003ce2:	4b07      	ldr	r3, [pc, #28]	; (10003d00 <stdio_uart_init+0x28>)
10003ce4:	781b      	ldrb	r3, [r3, #0]
10003ce6:	21e1      	movs	r1, #225	; 0xe1
10003ce8:	2301      	movs	r3, #1
10003cea:	2200      	movs	r2, #0
10003cec:	0249      	lsls	r1, r1, #9
10003cee:	4805      	ldr	r0, [pc, #20]	; (10003d04 <stdio_uart_init+0x2c>)
10003cf0:	f7ff ffd0 	bl	10003c94 <stdio_uart_init_full>
10003cf4:	bd10      	pop	{r4, pc}
10003cf6:	46c0      	nop			; (mov r8, r8)
10003cf8:	10004874 	.word	0x10004874
10003cfc:	10004878 	.word	0x10004878
10003d00:	1000487c 	.word	0x1000487c
10003d04:	40034000 	.word	0x40034000

10003d08 <strlen>:
10003d08:	b510      	push	{r4, lr}
10003d0a:	0783      	lsls	r3, r0, #30
10003d0c:	d00a      	beq.n	10003d24 <strlen+0x1c>
10003d0e:	0003      	movs	r3, r0
10003d10:	2103      	movs	r1, #3
10003d12:	e002      	b.n	10003d1a <strlen+0x12>
10003d14:	3301      	adds	r3, #1
10003d16:	420b      	tst	r3, r1
10003d18:	d005      	beq.n	10003d26 <strlen+0x1e>
10003d1a:	781a      	ldrb	r2, [r3, #0]
10003d1c:	2a00      	cmp	r2, #0
10003d1e:	d1f9      	bne.n	10003d14 <strlen+0xc>
10003d20:	1a18      	subs	r0, r3, r0
10003d22:	bd10      	pop	{r4, pc}
10003d24:	0003      	movs	r3, r0
10003d26:	6819      	ldr	r1, [r3, #0]
10003d28:	4a0c      	ldr	r2, [pc, #48]	; (10003d5c <strlen+0x54>)
10003d2a:	4c0d      	ldr	r4, [pc, #52]	; (10003d60 <strlen+0x58>)
10003d2c:	188a      	adds	r2, r1, r2
10003d2e:	438a      	bics	r2, r1
10003d30:	4222      	tst	r2, r4
10003d32:	d10f      	bne.n	10003d54 <strlen+0x4c>
10003d34:	6859      	ldr	r1, [r3, #4]
10003d36:	4a09      	ldr	r2, [pc, #36]	; (10003d5c <strlen+0x54>)
10003d38:	3304      	adds	r3, #4
10003d3a:	188a      	adds	r2, r1, r2
10003d3c:	438a      	bics	r2, r1
10003d3e:	4222      	tst	r2, r4
10003d40:	d108      	bne.n	10003d54 <strlen+0x4c>
10003d42:	6859      	ldr	r1, [r3, #4]
10003d44:	4a05      	ldr	r2, [pc, #20]	; (10003d5c <strlen+0x54>)
10003d46:	3304      	adds	r3, #4
10003d48:	188a      	adds	r2, r1, r2
10003d4a:	438a      	bics	r2, r1
10003d4c:	4222      	tst	r2, r4
10003d4e:	d0f1      	beq.n	10003d34 <strlen+0x2c>
10003d50:	e000      	b.n	10003d54 <strlen+0x4c>
10003d52:	3301      	adds	r3, #1
10003d54:	781a      	ldrb	r2, [r3, #0]
10003d56:	2a00      	cmp	r2, #0
10003d58:	d1fb      	bne.n	10003d52 <strlen+0x4a>
10003d5a:	e7e1      	b.n	10003d20 <strlen+0x18>
10003d5c:	fefefeff 	.word	0xfefefeff
10003d60:	80808080 	.word	0x80808080

10003d64 <_fini>:
10003d64:	b5f8      	push	{r3, r4, r5, r6, r7, lr}
10003d66:	46c0      	nop			; (mov r8, r8)

10003d68 <__mutex_exit_veneer>:
10003d68:	b401      	push	{r0}
10003d6a:	4802      	ldr	r0, [pc, #8]	; (10003d74 <__mutex_exit_veneer+0xc>)
10003d6c:	4684      	mov	ip, r0
10003d6e:	bc01      	pop	{r0}
10003d70:	4760      	bx	ip
10003d72:	bf00      	nop
10003d74:	200001c9 	.word	0x200001c9

10003d78 <____aeabi_ldiv0_veneer>:
10003d78:	b401      	push	{r0}
10003d7a:	4802      	ldr	r0, [pc, #8]	; (10003d84 <____aeabi_ldiv0_veneer+0xc>)
10003d7c:	4684      	mov	ip, r0
10003d7e:	bc01      	pop	{r0}
10003d80:	4760      	bx	ip
10003d82:	bf00      	nop
10003d84:	20000215 	.word	0x20000215

10003d88 <____aeabi_idiv0_veneer>:
10003d88:	b401      	push	{r0}
10003d8a:	4802      	ldr	r0, [pc, #8]	; (10003d94 <____aeabi_idiv0_veneer+0xc>)
10003d8c:	4684      	mov	ip, r0
10003d8e:	bc01      	pop	{r0}
10003d90:	4760      	bx	ip
10003d92:	bf00      	nop
10003d94:	20000215 	.word	0x20000215

10003d98 <__mutex_try_enter_block_until_veneer>:
10003d98:	b401      	push	{r0}
10003d9a:	4802      	ldr	r0, [pc, #8]	; (10003da4 <__mutex_try_enter_block_until_veneer+0xc>)
10003d9c:	4684      	mov	ip, r0
10003d9e:	bc01      	pop	{r0}
10003da0:	4760      	bx	ip
10003da2:	bf00      	nop
10003da4:	20000195 	.word	0x20000195

10003da8 <__pre_init_runtime_init_early_resets>:
10003da8:	10001555                                U...

10003dac <__pre_init_runtime_init_usb_power_down>:
10003dac:	10001581 100016e9 10002679 10001de5     ........y&......
10003dbc:	10002531                                1%..

10003dc0 <__pre_init_runtime_init_clocks>:
10003dc0:	1000161d                                ....

10003dc4 <__pre_init_runtime_init_post_clock_resets>:
10003dc4:	1000159d                                ....

10003dc8 <__pre_init_runtime_init_rp2040_gpio_ie_disable>:
10003dc8:	100015bd                                ....

10003dcc <__pre_init_runtime_init_spin_locks_reset>:
10003dcc:	100015d1                                ....

10003dd0 <__pre_init_runtime_init_mutex>:
10003dd0:	10000a15                                ....

10003dd4 <__pre_init_runtime_init_install_ram_vector_table>:
10003dd4:	100015d9                                ....

10003dd8 <__pre_init_runtime_init_default_alarm_pool>:
10003dd8:	10001081                                ....

10003ddc <__pre_init_first_per_core_initializer>:
10003ddc:	10001541                                A...

10003de0 <__pre_init_runtime_init_per_core_irq_priorities>:
10003de0:	100005d5                                ....

10003de4 <__frame_dummy_init_array_entry>:
10003de4:	100002fd                                ....

Disassembly of section .data:

200000c0 <mutex_try_enter>:
200000c0:	0003      	movs	r3, r0
200000c2:	6800      	ldr	r0, [r0, #0]
200000c4:	f3ef 8c10 	mrs	ip, PRIMASK
200000c8:	b672      	cpsid	i
200000ca:	6802      	ldr	r2, [r0, #0]
200000cc:	2a00      	cmp	r2, #0
200000ce:	d0fc      	beq.n	200000ca <mutex_try_enter+0xa>
200000d0:	f3bf 8f5f 	dmb	sy
200000d4:	2204      	movs	r2, #4
200000d6:	569a      	ldrsb	r2, [r3, r2]
200000d8:	2a00      	cmp	r2, #0
200000da:	db0b      	blt.n	200000f4 <mutex_try_enter+0x34>
200000dc:	2900      	cmp	r1, #0
200000de:	d010      	beq.n	20000102 <mutex_try_enter+0x42>
200000e0:	600a      	str	r2, [r1, #0]
200000e2:	2000      	movs	r0, #0
200000e4:	681b      	ldr	r3, [r3, #0]
200000e6:	f3bf 8f5f 	dmb	sy
200000ea:	2200      	movs	r2, #0
200000ec:	601a      	str	r2, [r3, #0]
200000ee:	f38c 8810 	msr	PRIMASK, ip
200000f2:	4770      	bx	lr
200000f4:	22d0      	movs	r2, #208	; 0xd0
200000f6:	0612      	lsls	r2, r2, #24
200000f8:	7812      	ldrb	r2, [r2, #0]
200000fa:	b252      	sxtb	r2, r2
200000fc:	711a      	strb	r2, [r3, #4]
200000fe:	2001      	movs	r0, #1
20000100:	e7f0      	b.n	200000e4 <mutex_try_enter+0x24>
20000102:	2000      	movs	r0, #0
20000104:	e7ee      	b.n	200000e4 <mutex_try_enter+0x24>
	...

20000108 <mutex_enter_block_until>:
20000108:	b5f8      	push	{r3, r4, r5, r6, r7, lr}
2000010a:	46ce      	mov	lr, r9
2000010c:	4647      	mov	r7, r8
2000010e:	b580      	push	{r7, lr}
20000110:	0004      	movs	r4, r0
20000112:	0017      	movs	r7, r2
20000114:	4698      	mov	r8, r3
20000116:	6803      	ldr	r3, [r0, #0]
20000118:	2b00      	cmp	r3, #0
2000011a:	d020      	beq.n	2000015e <mutex_enter_block_until+0x56>
2000011c:	23d0      	movs	r3, #208	; 0xd0
2000011e:	061b      	lsls	r3, r3, #24
20000120:	781b      	ldrb	r3, [r3, #0]
20000122:	b25b      	sxtb	r3, r3
20000124:	4699      	mov	r9, r3
20000126:	6826      	ldr	r6, [r4, #0]
20000128:	f3ef 8c10 	mrs	ip, PRIMASK
2000012c:	b672      	cpsid	i
2000012e:	6835      	ldr	r5, [r6, #0]
20000130:	2d00      	cmp	r5, #0
20000132:	d0fc      	beq.n	2000012e <mutex_enter_block_until+0x26>
20000134:	f3bf 8f5f 	dmb	sy
20000138:	2504      	movs	r5, #4
2000013a:	5765      	ldrsb	r5, [r4, r5]
2000013c:	2d00      	cmp	r5, #0
2000013e:	db14      	blt.n	2000016a <mutex_enter_block_until+0x62>
20000140:	6823      	ldr	r3, [r4, #0]
20000142:	f3bf 8f5f 	dmb	sy
20000146:	2200      	movs	r2, #0
20000148:	601a      	str	r2, [r3, #0]
2000014a:	f38c 8810 	msr	PRIMASK, ip
2000014e:	0038      	movs	r0, r7
20000150:	4641      	mov	r1, r8
20000152:	f000 f861 	bl	20000218 <__best_effort_wfe_or_timeout_veneer>
20000156:	2800      	cmp	r0, #0
20000158:	d0e5      	beq.n	20000126 <mutex_enter_block_until+0x1e>
2000015a:	2000      	movs	r0, #0
2000015c:	e00f      	b.n	2000017e <mutex_enter_block_until+0x76>
2000015e:	4b0a      	ldr	r3, [pc, #40]	; (20000188 <mutex_enter_block_until+0x80>)
20000160:	4a0a      	ldr	r2, [pc, #40]	; (2000018c <mutex_enter_block_until+0x84>)
20000162:	21a6      	movs	r1, #166	; 0xa6
20000164:	480a      	ldr	r0, [pc, #40]	; (20000190 <mutex_enter_block_until+0x88>)
20000166:	f000 f85f 	bl	20000228 <____assert_func_veneer>
2000016a:	464b      	mov	r3, r9
2000016c:	7123      	strb	r3, [r4, #4]
2000016e:	6823      	ldr	r3, [r4, #0]
20000170:	f3bf 8f5f 	dmb	sy
20000174:	2200      	movs	r2, #0
20000176:	601a      	str	r2, [r3, #0]
20000178:	f38c 8810 	msr	PRIMASK, ip
2000017c:	2001      	movs	r0, #1
2000017e:	bcc0      	pop	{r6, r7}
20000180:	46b9      	mov	r9, r7
20000182:	46b0      	mov	r8, r6
20000184:	bdf8      	pop	{r3, r4, r5, r6, r7, pc}
20000186:	46c0      	nop			; (mov r8, r8)
20000188:	10004110 	.word	0x10004110
2000018c:	10004168 	.word	0x10004168
20000190:	100040c0 	.word	0x100040c0

20000194 <mutex_try_enter_block_until>:
20000194:	b570      	push	{r4, r5, r6, lr}
20000196:	b082      	sub	sp, #8
20000198:	0006      	movs	r6, r0
2000019a:	0015      	movs	r5, r2
2000019c:	001c      	movs	r4, r3
2000019e:	a901      	add	r1, sp, #4
200001a0:	f7ff ff8e 	bl	200000c0 <mutex_try_enter>
200001a4:	2800      	cmp	r0, #0
200001a6:	d107      	bne.n	200001b8 <mutex_try_enter_block_until+0x24>
200001a8:	9b01      	ldr	r3, [sp, #4]
200001aa:	b25b      	sxtb	r3, r3
200001ac:	22d0      	movs	r2, #208	; 0xd0
200001ae:	0612      	lsls	r2, r2, #24
200001b0:	7812      	ldrb	r2, [r2, #0]
200001b2:	b252      	sxtb	r2, r2
200001b4:	4293      	cmp	r3, r2
200001b6:	d101      	bne.n	200001bc <mutex_try_enter_block_until+0x28>
200001b8:	b002      	add	sp, #8
200001ba:	bd70      	pop	{r4, r5, r6, pc}
200001bc:	002a      	movs	r2, r5
200001be:	0023      	movs	r3, r4
200001c0:	0030      	movs	r0, r6
200001c2:	f7ff ffa1 	bl	20000108 <mutex_enter_block_until>
200001c6:	e7f7      	b.n	200001b8 <mutex_try_enter_block_until+0x24>

200001c8 <mutex_exit>:
200001c8:	b510      	push	{r4, lr}
200001ca:	6802      	ldr	r2, [r0, #0]
200001cc:	f3ef 8110 	mrs	r1, PRIMASK
200001d0:	b672      	cpsid	i
200001d2:	6813      	ldr	r3, [r2, #0]
200001d4:	2b00      	cmp	r3, #0
200001d6:	d0fc      	beq.n	200001d2 <mutex_exit+0xa>
200001d8:	f3bf 8f5f 	dmb	sy
200001dc:	2304      	movs	r3, #4
200001de:	56c3      	ldrsb	r3, [r0, r3]
200001e0:	2b00      	cmp	r3, #0
200001e2:	db0a      	blt.n	200001fa <mutex_exit+0x32>
200001e4:	23ff      	movs	r3, #255	; 0xff
200001e6:	7103      	strb	r3, [r0, #4]
200001e8:	6803      	ldr	r3, [r0, #0]
200001ea:	f3bf 8f5f 	dmb	sy
200001ee:	2200      	movs	r2, #0
200001f0:	601a      	str	r2, [r3, #0]
200001f2:	f381 8810 	msr	PRIMASK, r1
200001f6:	bf40      	sev
200001f8:	bd10      	pop	{r4, pc}
200001fa:	4b03      	ldr	r3, [pc, #12]	; (20000208 <mutex_exit+0x40>)
200001fc:	4a03      	ldr	r2, [pc, #12]	; (2000020c <mutex_exit+0x44>)
200001fe:	21d5      	movs	r1, #213	; 0xd5
20000200:	4803      	ldr	r0, [pc, #12]	; (20000210 <mutex_exit+0x48>)
20000202:	f000 f811 	bl	20000228 <____assert_func_veneer>
20000206:	46c0      	nop			; (mov r8, r8)
20000208:	10004124 	.word	0x10004124
2000020c:	1000415c 	.word	0x1000415c
20000210:	100040c0 	.word	0x100040c0

20000214 <__aeabi_idiv0>:
20000214:	4770      	bx	lr
20000216:	46c0      	nop			; (mov r8, r8)

20000218 <__best_effort_wfe_or_timeout_veneer>:
20000218:	b401      	push	{r0}
2000021a:	4802      	ldr	r0, [pc, #8]	; (20000224 <__best_effort_wfe_or_timeout_veneer+0xc>)
2000021c:	4684      	mov	ip, r0
2000021e:	bc01      	pop	{r0}
20000220:	4760      	bx	ip
20000222:	bf00      	nop
20000224:	10000fa1 	.word	0x10000fa1

20000228 <____assert_func_veneer>:
20000228:	b401      	push	{r0}
2000022a:	4802      	ldr	r0, [pc, #8]	; (20000234 <____assert_func_veneer+0xc>)
2000022c:	4684      	mov	ip, r0
2000022e:	bc01      	pop	{r0}
20000230:	4760      	bx	ip
20000232:	bf00      	nop
20000234:	100037e1 	.word	0x100037e1

20000238 <striped_spin_lock_num>:
20000238:	00000010                                ....

2000023c <irq_handler_chain_slots>:
2000023c:	00000000 	.word	0x00000000
20000240:	00010000 	.word	0x00010000
	...
2000024c:	00020000 	.word	0x00020000
	...
20000258:	00030000 	.word	0x00030000
	...
20000264:	00ff0000 	.word	0x00ff0000
20000268:	00000000 	.word	0x00000000

2000026c <irq_handler_chain_first_slot>:
2000026c:	b501      	push	{r0, lr}
2000026e:	6848      	ldr	r0, [r1, #4]
20000270:	3101      	adds	r1, #1
20000272:	468e      	mov	lr, r1
20000274:	4700      	bx	r0

20000276 <irq_handler_chain_remove_tail>:
20000276:	4670      	mov	r0, lr
20000278:	3809      	subs	r0, #9
2000027a:	4901      	ldr	r1, [pc, #4]	; (20000280 <irq_handler_chain_remove_tail+0xa>)
2000027c:	4788      	blx	r1
2000027e:	bd01      	pop	{r0, pc}
20000280:	100008d9 	.word	0x100008d9

20000284 <default_alarm_pool>:
	...
20000298:	200002e0 00000000                       ... ....

200002a0 <aeabi_bits_funcs>:
200002a0:	00003350 	.word	0x00003350
200002a4:	0000334c 	.word	0x0000334c
200002a8:	00003354 	.word	0x00003354
200002ac:	00003352 	.word	0x00003352

200002b0 <aeabi_bits_funcs_end>:
200002b0:	0000534d 	.word	0x0000534d
200002b4:	0000434d 	.word	0x0000434d
200002b8:	00003453 	.word	0x00003453
200002bc:	00003443 	.word	0x00003443

200002c0 <stdio_uart>:
200002c0:	10003ad9 10003bf5 10003b4d 10003c05     .:...;..M;...<..
200002d0:	00000000 00000100                       ........

200002d8 <print_mutex>:
	...
